

Microchip MPLAB XC8 Assembler V2.32 build 20210201212658 
                                                                                               Sun Oct 09 22:04:10 2022

Microchip MPLAB XC8 C Compiler v2.32 (Free license) build 20210201212658 Og1 
     1                           	processor	16F18855
     2                           	pagewidth 120
     3                           	opt	flic
     4                           	psect	nvBANK0,global,class=BANK0,space=1,delta=1,noexec
     5                           	psect	stringtext1,global,class=STRCODE,delta=2,noexec
     6                           	psect	stringtext2,global,class=STRCODE,delta=2,noexec
     7                           	psect	cinit,global,class=CODE,merge=1,delta=2
     8                           	psect	bssCOMMON,global,class=COMMON,space=1,delta=1,noexec
     9                           	psect	bssBANK0,global,class=BANK0,space=1,delta=1,noexec
    10                           	psect	bssBANK1,global,class=BANK1,space=1,delta=1,noexec
    11                           	psect	clrtext,global,class=CODE,delta=2
    12                           	psect	cstackCOMMON,global,class=COMMON,space=1,delta=1,noexec
    13                           	psect	cstackBANK0,global,class=BANK0,space=1,delta=1,noexec
    14                           	psect	maintext,global,class=CODE,merge=1,split=1,delta=2
    15                           	psect	text1,local,class=CODE,merge=1,delta=2,group=3
    16                           	psect	text2,local,class=CODE,merge=1,delta=2,group=1
    17                           	psect	text3,local,class=CODE,merge=1,delta=2,group=1
    18                           	psect	text4,local,class=CODE,merge=1,delta=2,group=3
    19                           	psect	text5,local,class=CODE,merge=1,delta=2
    20                           	psect	text6,local,class=CODE,merge=1,delta=2
    21                           	psect	text7,local,class=CODE,merge=1,delta=2
    22                           	psect	text8,local,class=CODE,merge=1,delta=2
    23                           	psect	text9,local,class=CODE,merge=1,delta=2
    24                           	psect	text10,local,class=CODE,merge=1,delta=2
    25                           	psect	text11,local,class=CODE,merge=1,delta=2
    26                           	psect	text12,local,class=CODE,merge=1,delta=2
    27                           	psect	text13,local,class=CODE,merge=1,delta=2
    28                           	psect	text14,local,class=CODE,merge=1,delta=2
    29                           	psect	text15,local,class=CODE,merge=1,delta=2
    30                           	psect	text16,local,class=CODE,merge=1,delta=2
    31                           	psect	text17,local,class=CODE,merge=1,delta=2
    32                           	psect	intentry,global,class=CODE,delta=2
    33                           	psect	text19,local,class=CODE,merge=1,delta=2
    34                           	psect	text20,local,class=CODE,merge=1,delta=2
    35                           	psect	text21,local,class=CODE,merge=1,delta=2
    36                           	psect	text22,local,class=CODE,merge=1,delta=2
    37                           	psect	text23,local,class=CODE,merge=1,delta=2
    38                           	psect	text24,local,class=CODE,merge=1,delta=2
    39                           	psect	idloc,global,abs,ovrld,class=IDLOC,space=5,delta=2,noexec
    40                           	psect	config,global,abs,ovrld,class=CONFIG,space=4,delta=2,noexec
    41                           	dabs	1,0x7E,2
    42  0000                     
    43                           ; Version 2.40
    44                           ; Generated 02/12/2021 GMT
    45                           ; 
    46                           ; Copyright © 2021, Microchip Technology Inc. and its subsidiaries ("Microchip")
    47                           ; All rights reserved.
    48                           ; 
    49                           ; This software is developed by Microchip Technology Inc. and its subsidiaries ("Microch
      +                          ip").
    50                           ; 
    51                           ; Redistribution and use in source and binary forms, with or without modification, are
    52                           ; permitted provided that the following conditions are met:
    53                           ; 
    54                           ;     1. Redistributions of source code must retain the above copyright notice, this lis
      +                          t of
    55                           ;        conditions and the following disclaimer.
    56                           ; 
    57                           ;     2. Redistributions in binary form must reproduce the above copyright notice, this 
      +                          list
    58                           ;        of conditions and the following disclaimer in the documentation and/or other
    59                           ;        materials provided with the distribution. Publication is not required when
    60                           ;        this file is used in an embedded application.
    61                           ; 
    62                           ;     3. Microchip's name may not be used to endorse or promote products derived from th
      +                          is
    63                           ;        software without specific prior written permission.
    64                           ; 
    65                           ; THIS SOFTWARE IS PROVIDED BY MICROCHIP "AS IS" AND ANY EXPRESS OR IMPLIED WARRANTIES,
    66                           ; INCLUDING, BUT NOT LIMITED TO, THE IMPLIED WARRANTIES OF MERCHANTABILITY AND FITNESS F
      +                          OR
    67                           ; PURPOSE ARE DISCLAIMED.  IN NO EVENT SHALL MICROCHIP BE LIABLE FOR ANY DIRECT, INDIREC
      +                          T,
    68                           ; INCIDENTAL, SPECIAL, EXEMPLARY, OR CONSEQUENTIAL DAMAGES (INCLUDING BUT NOT LIMITED TO
    69                           ; PROCUREMENT OF SUBSTITUTE GOODS OR SERVICES; LOSS OF USE, DATA OR PROFITS; OR BUSINESS
    70                           ; INTERRUPTION) HOWSOEVER CAUSED AND ON ANY THEORY OF LIABILITY, WHETHER IN CONTRACT, ST
      +                          RICT
    71                           ; LIABILITY, OR TORT (INCLUDING NEGLIGENCE OR OTHERWISE) ARISING IN ANY WAY OUT OF THE U
      +                          SE OF
    72                           ; THIS SOFTWARE, EVEN IF ADVISED OF THE POSSIBILITY OF SUCH DAMAGE.
    73                           ; 
    74                           ; 
    75                           ; Code-generator required, PIC16F18855 Definitions
    76                           ; 
    77                           ; SFR Addresses
    78  0000                     	;# 
    79  0001                     	;# 
    80  0002                     	;# 
    81  0003                     	;# 
    82  0004                     	;# 
    83  0005                     	;# 
    84  0006                     	;# 
    85  0007                     	;# 
    86  0008                     	;# 
    87  0009                     	;# 
    88  000A                     	;# 
    89  000B                     	;# 
    90  000C                     	;# 
    91  000D                     	;# 
    92  000E                     	;# 
    93  0010                     	;# 
    94  0011                     	;# 
    95  0012                     	;# 
    96  0013                     	;# 
    97  0016                     	;# 
    98  0017                     	;# 
    99  0018                     	;# 
   100  001C                     	;# 
   101  001C                     	;# 
   102  001D                     	;# 
   103  001D                     	;# 
   104  001E                     	;# 
   105  001F                     	;# 
   106  008C                     	;# 
   107  008C                     	;# 
   108  008D                     	;# 
   109  008E                     	;# 
   110  008E                     	;# 
   111  008F                     	;# 
   112  0090                     	;# 
   113  0090                     	;# 
   114  0091                     	;# 
   115  0093                     	;# 
   116  0094                     	;# 
   117  0095                     	;# 
   118  0096                     	;# 
   119  0097                     	;# 
   120  0098                     	;# 
   121  0099                     	;# 
   122  009A                     	;# 
   123  009B                     	;# 
   124  009C                     	;# 
   125  009D                     	;# 
   126  009E                     	;# 
   127  010C                     	;# 
   128  010D                     	;# 
   129  010E                     	;# 
   130  010E                     	;# 
   131  010F                     	;# 
   132  0110                     	;# 
   133  0110                     	;# 
   134  0111                     	;# 
   135  0112                     	;# 
   136  0112                     	;# 
   137  0113                     	;# 
   138  0114                     	;# 
   139  0114                     	;# 
   140  0115                     	;# 
   141  0116                     	;# 
   142  0116                     	;# 
   143  0117                     	;# 
   144  0119                     	;# 
   145  0119                     	;# 
   146  0119                     	;# 
   147  011A                     	;# 
   148  011A                     	;# 
   149  011A                     	;# 
   150  011B                     	;# 
   151  011B                     	;# 
   152  011B                     	;# 
   153  011B                     	;# 
   154  011B                     	;# 
   155  011C                     	;# 
   156  011C                     	;# 
   157  011C                     	;# 
   158  011D                     	;# 
   159  011D                     	;# 
   160  011D                     	;# 
   161  011E                     	;# 
   162  011E                     	;# 
   163  011E                     	;# 
   164  011F                     	;# 
   165  011F                     	;# 
   166  011F                     	;# 
   167  011F                     	;# 
   168  011F                     	;# 
   169  018C                     	;# 
   170  018D                     	;# 
   171  018E                     	;# 
   172  018F                     	;# 
   173  0190                     	;# 
   174  0191                     	;# 
   175  0192                     	;# 
   176  0196                     	;# 
   177  0197                     	;# 
   178  0198                     	;# 
   179  0199                     	;# 
   180  019A                     	;# 
   181  019B                     	;# 
   182  019C                     	;# 
   183  020C                     	;# 
   184  020C                     	;# 
   185  020D                     	;# 
   186  020E                     	;# 
   187  020F                     	;# 
   188  020F                     	;# 
   189  0210                     	;# 
   190  0210                     	;# 
   191  0211                     	;# 
   192  0211                     	;# 
   193  0212                     	;# 
   194  0212                     	;# 
   195  0213                     	;# 
   196  0214                     	;# 
   197  0215                     	;# 
   198  0215                     	;# 
   199  0216                     	;# 
   200  0216                     	;# 
   201  0217                     	;# 
   202  0217                     	;# 
   203  0218                     	;# 
   204  0218                     	;# 
   205  0219                     	;# 
   206  021A                     	;# 
   207  021B                     	;# 
   208  021B                     	;# 
   209  021C                     	;# 
   210  021C                     	;# 
   211  021D                     	;# 
   212  021D                     	;# 
   213  021E                     	;# 
   214  021F                     	;# 
   215  028C                     	;# 
   216  028C                     	;# 
   217  028D                     	;# 
   218  028D                     	;# 
   219  028E                     	;# 
   220  028F                     	;# 
   221  0290                     	;# 
   222  0290                     	;# 
   223  0291                     	;# 
   224  0292                     	;# 
   225  0292                     	;# 
   226  0293                     	;# 
   227  0293                     	;# 
   228  0294                     	;# 
   229  0295                     	;# 
   230  0296                     	;# 
   231  0296                     	;# 
   232  0297                     	;# 
   233  0298                     	;# 
   234  0298                     	;# 
   235  0299                     	;# 
   236  0299                     	;# 
   237  029A                     	;# 
   238  029B                     	;# 
   239  029C                     	;# 
   240  029C                     	;# 
   241  029D                     	;# 
   242  030C                     	;# 
   243  030C                     	;# 
   244  030D                     	;# 
   245  030E                     	;# 
   246  030F                     	;# 
   247  0310                     	;# 
   248  0310                     	;# 
   249  0311                     	;# 
   250  0312                     	;# 
   251  0313                     	;# 
   252  0314                     	;# 
   253  0314                     	;# 
   254  0315                     	;# 
   255  0316                     	;# 
   256  0317                     	;# 
   257  0318                     	;# 
   258  0318                     	;# 
   259  0319                     	;# 
   260  031A                     	;# 
   261  031B                     	;# 
   262  031C                     	;# 
   263  031C                     	;# 
   264  031D                     	;# 
   265  031E                     	;# 
   266  031F                     	;# 
   267  038C                     	;# 
   268  038C                     	;# 
   269  038D                     	;# 
   270  038E                     	;# 
   271  0390                     	;# 
   272  0390                     	;# 
   273  0391                     	;# 
   274  0392                     	;# 
   275  040C                     	;# 
   276  040D                     	;# 
   277  040E                     	;# 
   278  040F                     	;# 
   279  0410                     	;# 
   280  0411                     	;# 
   281  0416                     	;# 
   282  0416                     	;# 
   283  0417                     	;# 
   284  0418                     	;# 
   285  0418                     	;# 
   286  0419                     	;# 
   287  041A                     	;# 
   288  041A                     	;# 
   289  041B                     	;# 
   290  041C                     	;# 
   291  041C                     	;# 
   292  041D                     	;# 
   293  041E                     	;# 
   294  041F                     	;# 
   295  048C                     	;# 
   296  048C                     	;# 
   297  048D                     	;# 
   298  048E                     	;# 
   299  048F                     	;# 
   300  048F                     	;# 
   301  0490                     	;# 
   302  0491                     	;# 
   303  0492                     	;# 
   304  0492                     	;# 
   305  0493                     	;# 
   306  0494                     	;# 
   307  0495                     	;# 
   308  0495                     	;# 
   309  0496                     	;# 
   310  0497                     	;# 
   311  0498                     	;# 
   312  0499                     	;# 
   313  049A                     	;# 
   314  049B                     	;# 
   315  049C                     	;# 
   316  049D                     	;# 
   317  050C                     	;# 
   318  050C                     	;# 
   319  050D                     	;# 
   320  050E                     	;# 
   321  050F                     	;# 
   322  050F                     	;# 
   323  0510                     	;# 
   324  0511                     	;# 
   325  0512                     	;# 
   326  0512                     	;# 
   327  0513                     	;# 
   328  0514                     	;# 
   329  0515                     	;# 
   330  0515                     	;# 
   331  0516                     	;# 
   332  0517                     	;# 
   333  0518                     	;# 
   334  0519                     	;# 
   335  051A                     	;# 
   336  051B                     	;# 
   337  051C                     	;# 
   338  051D                     	;# 
   339  058C                     	;# 
   340  058C                     	;# 
   341  058D                     	;# 
   342  058E                     	;# 
   343  058F                     	;# 
   344  058F                     	;# 
   345  0590                     	;# 
   346  0591                     	;# 
   347  0592                     	;# 
   348  0593                     	;# 
   349  060C                     	;# 
   350  060D                     	;# 
   351  060E                     	;# 
   352  060F                     	;# 
   353  0610                     	;# 
   354  0611                     	;# 
   355  0612                     	;# 
   356  0613                     	;# 
   357  0614                     	;# 
   358  0616                     	;# 
   359  0617                     	;# 
   360  0618                     	;# 
   361  0619                     	;# 
   362  061A                     	;# 
   363  061B                     	;# 
   364  061C                     	;# 
   365  061D                     	;# 
   366  061E                     	;# 
   367  068C                     	;# 
   368  068D                     	;# 
   369  068E                     	;# 
   370  068F                     	;# 
   371  0690                     	;# 
   372  0691                     	;# 
   373  0692                     	;# 
   374  0693                     	;# 
   375  0694                     	;# 
   376  070C                     	;# 
   377  070D                     	;# 
   378  070E                     	;# 
   379  070F                     	;# 
   380  0710                     	;# 
   381  0711                     	;# 
   382  0712                     	;# 
   383  0713                     	;# 
   384  0714                     	;# 
   385  0716                     	;# 
   386  0717                     	;# 
   387  0718                     	;# 
   388  0719                     	;# 
   389  071A                     	;# 
   390  071B                     	;# 
   391  071C                     	;# 
   392  071D                     	;# 
   393  071E                     	;# 
   394  0796                     	;# 
   395  0797                     	;# 
   396  0798                     	;# 
   397  0799                     	;# 
   398  079A                     	;# 
   399  079B                     	;# 
   400  080C                     	;# 
   401  080D                     	;# 
   402  080E                     	;# 
   403  080F                     	;# 
   404  0810                     	;# 
   405  0811                     	;# 
   406  0812                     	;# 
   407  0813                     	;# 
   408  0814                     	;# 
   409  081A                     	;# 
   410  081B                     	;# 
   411  081C                     	;# 
   412  081D                     	;# 
   413  081E                     	;# 
   414  081F                     	;# 
   415  088C                     	;# 
   416  088D                     	;# 
   417  088E                     	;# 
   418  088F                     	;# 
   419  0890                     	;# 
   420  0891                     	;# 
   421  0892                     	;# 
   422  0893                     	;# 
   423  0895                     	;# 
   424  0896                     	;# 
   425  0897                     	;# 
   426  0898                     	;# 
   427  0899                     	;# 
   428  089A                     	;# 
   429  089B                     	;# 
   430  090C                     	;# 
   431  090E                     	;# 
   432  090F                     	;# 
   433  091F                     	;# 
   434  091F                     	;# 
   435  098F                     	;# 
   436  098F                     	;# 
   437  0990                     	;# 
   438  0991                     	;# 
   439  0992                     	;# 
   440  0993                     	;# 
   441  0994                     	;# 
   442  0995                     	;# 
   443  0996                     	;# 
   444  0997                     	;# 
   445  0E0F                     	;# 
   446  0E10                     	;# 
   447  0E11                     	;# 
   448  0E12                     	;# 
   449  0E13                     	;# 
   450  0E14                     	;# 
   451  0E15                     	;# 
   452  0E16                     	;# 
   453  0E17                     	;# 
   454  0E18                     	;# 
   455  0E19                     	;# 
   456  0E1A                     	;# 
   457  0E1B                     	;# 
   458  0E1C                     	;# 
   459  0E1D                     	;# 
   460  0E1E                     	;# 
   461  0E1F                     	;# 
   462  0E20                     	;# 
   463  0E21                     	;# 
   464  0E22                     	;# 
   465  0E23                     	;# 
   466  0E24                     	;# 
   467  0E25                     	;# 
   468  0E26                     	;# 
   469  0E27                     	;# 
   470  0E28                     	;# 
   471  0E29                     	;# 
   472  0E2A                     	;# 
   473  0E2B                     	;# 
   474  0E2C                     	;# 
   475  0E2D                     	;# 
   476  0E2E                     	;# 
   477  0E2F                     	;# 
   478  0E30                     	;# 
   479  0E31                     	;# 
   480  0E32                     	;# 
   481  0E33                     	;# 
   482  0E34                     	;# 
   483  0E35                     	;# 
   484  0E36                     	;# 
   485  0E37                     	;# 
   486  0E8F                     	;# 
   487  0E90                     	;# 
   488  0E91                     	;# 
   489  0E92                     	;# 
   490  0E93                     	;# 
   491  0E94                     	;# 
   492  0E95                     	;# 
   493  0E96                     	;# 
   494  0E97                     	;# 
   495  0E9C                     	;# 
   496  0E9D                     	;# 
   497  0E9E                     	;# 
   498  0EA1                     	;# 
   499  0EA2                     	;# 
   500  0EA3                     	;# 
   501  0EA4                     	;# 
   502  0EA5                     	;# 
   503  0EA9                     	;# 
   504  0EAA                     	;# 
   505  0EAB                     	;# 
   506  0EAC                     	;# 
   507  0EB1                     	;# 
   508  0EB2                     	;# 
   509  0EB3                     	;# 
   510  0EB8                     	;# 
   511  0EB9                     	;# 
   512  0EBA                     	;# 
   513  0EBB                     	;# 
   514  0EBC                     	;# 
   515  0EBD                     	;# 
   516  0EBE                     	;# 
   517  0EC3                     	;# 
   518  0EC5                     	;# 
   519  0EC6                     	;# 
   520  0EC7                     	;# 
   521  0EC8                     	;# 
   522  0EC9                     	;# 
   523  0ECA                     	;# 
   524  0ECB                     	;# 
   525  0ECC                     	;# 
   526  0F10                     	;# 
   527  0F11                     	;# 
   528  0F12                     	;# 
   529  0F13                     	;# 
   530  0F14                     	;# 
   531  0F15                     	;# 
   532  0F16                     	;# 
   533  0F17                     	;# 
   534  0F18                     	;# 
   535  0F19                     	;# 
   536  0F1A                     	;# 
   537  0F1B                     	;# 
   538  0F1C                     	;# 
   539  0F1D                     	;# 
   540  0F1E                     	;# 
   541  0F1F                     	;# 
   542  0F20                     	;# 
   543  0F21                     	;# 
   544  0F22                     	;# 
   545  0F23                     	;# 
   546  0F24                     	;# 
   547  0F25                     	;# 
   548  0F26                     	;# 
   549  0F27                     	;# 
   550  0F38                     	;# 
   551  0F39                     	;# 
   552  0F3A                     	;# 
   553  0F3B                     	;# 
   554  0F3C                     	;# 
   555  0F3D                     	;# 
   556  0F3E                     	;# 
   557  0F3F                     	;# 
   558  0F40                     	;# 
   559  0F41                     	;# 
   560  0F43                     	;# 
   561  0F44                     	;# 
   562  0F45                     	;# 
   563  0F46                     	;# 
   564  0F47                     	;# 
   565  0F48                     	;# 
   566  0F49                     	;# 
   567  0F4A                     	;# 
   568  0F4B                     	;# 
   569  0F4C                     	;# 
   570  0F4E                     	;# 
   571  0F4F                     	;# 
   572  0F50                     	;# 
   573  0F51                     	;# 
   574  0F52                     	;# 
   575  0F53                     	;# 
   576  0F54                     	;# 
   577  0F55                     	;# 
   578  0F56                     	;# 
   579  0F57                     	;# 
   580  0F65                     	;# 
   581  0F68                     	;# 
   582  0F69                     	;# 
   583  0F6A                     	;# 
   584  0F6B                     	;# 
   585  0FE4                     	;# 
   586  0FE5                     	;# 
   587  0FE6                     	;# 
   588  0FE7                     	;# 
   589  0FE8                     	;# 
   590  0FE9                     	;# 
   591  0FEA                     	;# 
   592  0FEB                     	;# 
   593  0FED                     	;# 
   594  0FEE                     	;# 
   595  0FEF                     	;# 
   596  0000                     	;# 
   597  0001                     	;# 
   598  0002                     	;# 
   599  0003                     	;# 
   600  0004                     	;# 
   601  0005                     	;# 
   602  0006                     	;# 
   603  0007                     	;# 
   604  0008                     	;# 
   605  0009                     	;# 
   606  000A                     	;# 
   607  000B                     	;# 
   608  000C                     	;# 
   609  000D                     	;# 
   610  000E                     	;# 
   611  0010                     	;# 
   612  0011                     	;# 
   613  0012                     	;# 
   614  0013                     	;# 
   615  0016                     	;# 
   616  0017                     	;# 
   617  0018                     	;# 
   618  001C                     	;# 
   619  001C                     	;# 
   620  001D                     	;# 
   621  001D                     	;# 
   622  001E                     	;# 
   623  001F                     	;# 
   624  008C                     	;# 
   625  008C                     	;# 
   626  008D                     	;# 
   627  008E                     	;# 
   628  008E                     	;# 
   629  008F                     	;# 
   630  0090                     	;# 
   631  0090                     	;# 
   632  0091                     	;# 
   633  0093                     	;# 
   634  0094                     	;# 
   635  0095                     	;# 
   636  0096                     	;# 
   637  0097                     	;# 
   638  0098                     	;# 
   639  0099                     	;# 
   640  009A                     	;# 
   641  009B                     	;# 
   642  009C                     	;# 
   643  009D                     	;# 
   644  009E                     	;# 
   645  010C                     	;# 
   646  010D                     	;# 
   647  010E                     	;# 
   648  010E                     	;# 
   649  010F                     	;# 
   650  0110                     	;# 
   651  0110                     	;# 
   652  0111                     	;# 
   653  0112                     	;# 
   654  0112                     	;# 
   655  0113                     	;# 
   656  0114                     	;# 
   657  0114                     	;# 
   658  0115                     	;# 
   659  0116                     	;# 
   660  0116                     	;# 
   661  0117                     	;# 
   662  0119                     	;# 
   663  0119                     	;# 
   664  0119                     	;# 
   665  011A                     	;# 
   666  011A                     	;# 
   667  011A                     	;# 
   668  011B                     	;# 
   669  011B                     	;# 
   670  011B                     	;# 
   671  011B                     	;# 
   672  011B                     	;# 
   673  011C                     	;# 
   674  011C                     	;# 
   675  011C                     	;# 
   676  011D                     	;# 
   677  011D                     	;# 
   678  011D                     	;# 
   679  011E                     	;# 
   680  011E                     	;# 
   681  011E                     	;# 
   682  011F                     	;# 
   683  011F                     	;# 
   684  011F                     	;# 
   685  011F                     	;# 
   686  011F                     	;# 
   687  018C                     	;# 
   688  018D                     	;# 
   689  018E                     	;# 
   690  018F                     	;# 
   691  0190                     	;# 
   692  0191                     	;# 
   693  0192                     	;# 
   694  0196                     	;# 
   695  0197                     	;# 
   696  0198                     	;# 
   697  0199                     	;# 
   698  019A                     	;# 
   699  019B                     	;# 
   700  019C                     	;# 
   701  020C                     	;# 
   702  020C                     	;# 
   703  020D                     	;# 
   704  020E                     	;# 
   705  020F                     	;# 
   706  020F                     	;# 
   707  0210                     	;# 
   708  0210                     	;# 
   709  0211                     	;# 
   710  0211                     	;# 
   711  0212                     	;# 
   712  0212                     	;# 
   713  0213                     	;# 
   714  0214                     	;# 
   715  0215                     	;# 
   716  0215                     	;# 
   717  0216                     	;# 
   718  0216                     	;# 
   719  0217                     	;# 
   720  0217                     	;# 
   721  0218                     	;# 
   722  0218                     	;# 
   723  0219                     	;# 
   724  021A                     	;# 
   725  021B                     	;# 
   726  021B                     	;# 
   727  021C                     	;# 
   728  021C                     	;# 
   729  021D                     	;# 
   730  021D                     	;# 
   731  021E                     	;# 
   732  021F                     	;# 
   733  028C                     	;# 
   734  028C                     	;# 
   735  028D                     	;# 
   736  028D                     	;# 
   737  028E                     	;# 
   738  028F                     	;# 
   739  0290                     	;# 
   740  0290                     	;# 
   741  0291                     	;# 
   742  0292                     	;# 
   743  0292                     	;# 
   744  0293                     	;# 
   745  0293                     	;# 
   746  0294                     	;# 
   747  0295                     	;# 
   748  0296                     	;# 
   749  0296                     	;# 
   750  0297                     	;# 
   751  0298                     	;# 
   752  0298                     	;# 
   753  0299                     	;# 
   754  0299                     	;# 
   755  029A                     	;# 
   756  029B                     	;# 
   757  029C                     	;# 
   758  029C                     	;# 
   759  029D                     	;# 
   760  030C                     	;# 
   761  030C                     	;# 
   762  030D                     	;# 
   763  030E                     	;# 
   764  030F                     	;# 
   765  0310                     	;# 
   766  0310                     	;# 
   767  0311                     	;# 
   768  0312                     	;# 
   769  0313                     	;# 
   770  0314                     	;# 
   771  0314                     	;# 
   772  0315                     	;# 
   773  0316                     	;# 
   774  0317                     	;# 
   775  0318                     	;# 
   776  0318                     	;# 
   777  0319                     	;# 
   778  031A                     	;# 
   779  031B                     	;# 
   780  031C                     	;# 
   781  031C                     	;# 
   782  031D                     	;# 
   783  031E                     	;# 
   784  031F                     	;# 
   785  038C                     	;# 
   786  038C                     	;# 
   787  038D                     	;# 
   788  038E                     	;# 
   789  0390                     	;# 
   790  0390                     	;# 
   791  0391                     	;# 
   792  0392                     	;# 
   793  040C                     	;# 
   794  040D                     	;# 
   795  040E                     	;# 
   796  040F                     	;# 
   797  0410                     	;# 
   798  0411                     	;# 
   799  0416                     	;# 
   800  0416                     	;# 
   801  0417                     	;# 
   802  0418                     	;# 
   803  0418                     	;# 
   804  0419                     	;# 
   805  041A                     	;# 
   806  041A                     	;# 
   807  041B                     	;# 
   808  041C                     	;# 
   809  041C                     	;# 
   810  041D                     	;# 
   811  041E                     	;# 
   812  041F                     	;# 
   813  048C                     	;# 
   814  048C                     	;# 
   815  048D                     	;# 
   816  048E                     	;# 
   817  048F                     	;# 
   818  048F                     	;# 
   819  0490                     	;# 
   820  0491                     	;# 
   821  0492                     	;# 
   822  0492                     	;# 
   823  0493                     	;# 
   824  0494                     	;# 
   825  0495                     	;# 
   826  0495                     	;# 
   827  0496                     	;# 
   828  0497                     	;# 
   829  0498                     	;# 
   830  0499                     	;# 
   831  049A                     	;# 
   832  049B                     	;# 
   833  049C                     	;# 
   834  049D                     	;# 
   835  050C                     	;# 
   836  050C                     	;# 
   837  050D                     	;# 
   838  050E                     	;# 
   839  050F                     	;# 
   840  050F                     	;# 
   841  0510                     	;# 
   842  0511                     	;# 
   843  0512                     	;# 
   844  0512                     	;# 
   845  0513                     	;# 
   846  0514                     	;# 
   847  0515                     	;# 
   848  0515                     	;# 
   849  0516                     	;# 
   850  0517                     	;# 
   851  0518                     	;# 
   852  0519                     	;# 
   853  051A                     	;# 
   854  051B                     	;# 
   855  051C                     	;# 
   856  051D                     	;# 
   857  058C                     	;# 
   858  058C                     	;# 
   859  058D                     	;# 
   860  058E                     	;# 
   861  058F                     	;# 
   862  058F                     	;# 
   863  0590                     	;# 
   864  0591                     	;# 
   865  0592                     	;# 
   866  0593                     	;# 
   867  060C                     	;# 
   868  060D                     	;# 
   869  060E                     	;# 
   870  060F                     	;# 
   871  0610                     	;# 
   872  0611                     	;# 
   873  0612                     	;# 
   874  0613                     	;# 
   875  0614                     	;# 
   876  0616                     	;# 
   877  0617                     	;# 
   878  0618                     	;# 
   879  0619                     	;# 
   880  061A                     	;# 
   881  061B                     	;# 
   882  061C                     	;# 
   883  061D                     	;# 
   884  061E                     	;# 
   885  068C                     	;# 
   886  068D                     	;# 
   887  068E                     	;# 
   888  068F                     	;# 
   889  0690                     	;# 
   890  0691                     	;# 
   891  0692                     	;# 
   892  0693                     	;# 
   893  0694                     	;# 
   894  070C                     	;# 
   895  070D                     	;# 
   896  070E                     	;# 
   897  070F                     	;# 
   898  0710                     	;# 
   899  0711                     	;# 
   900  0712                     	;# 
   901  0713                     	;# 
   902  0714                     	;# 
   903  0716                     	;# 
   904  0717                     	;# 
   905  0718                     	;# 
   906  0719                     	;# 
   907  071A                     	;# 
   908  071B                     	;# 
   909  071C                     	;# 
   910  071D                     	;# 
   911  071E                     	;# 
   912  0796                     	;# 
   913  0797                     	;# 
   914  0798                     	;# 
   915  0799                     	;# 
   916  079A                     	;# 
   917  079B                     	;# 
   918  080C                     	;# 
   919  080D                     	;# 
   920  080E                     	;# 
   921  080F                     	;# 
   922  0810                     	;# 
   923  0811                     	;# 
   924  0812                     	;# 
   925  0813                     	;# 
   926  0814                     	;# 
   927  081A                     	;# 
   928  081B                     	;# 
   929  081C                     	;# 
   930  081D                     	;# 
   931  081E                     	;# 
   932  081F                     	;# 
   933  088C                     	;# 
   934  088D                     	;# 
   935  088E                     	;# 
   936  088F                     	;# 
   937  0890                     	;# 
   938  0891                     	;# 
   939  0892                     	;# 
   940  0893                     	;# 
   941  0895                     	;# 
   942  0896                     	;# 
   943  0897                     	;# 
   944  0898                     	;# 
   945  0899                     	;# 
   946  089A                     	;# 
   947  089B                     	;# 
   948  090C                     	;# 
   949  090E                     	;# 
   950  090F                     	;# 
   951  091F                     	;# 
   952  091F                     	;# 
   953  098F                     	;# 
   954  098F                     	;# 
   955  0990                     	;# 
   956  0991                     	;# 
   957  0992                     	;# 
   958  0993                     	;# 
   959  0994                     	;# 
   960  0995                     	;# 
   961  0996                     	;# 
   962  0997                     	;# 
   963  0E0F                     	;# 
   964  0E10                     	;# 
   965  0E11                     	;# 
   966  0E12                     	;# 
   967  0E13                     	;# 
   968  0E14                     	;# 
   969  0E15                     	;# 
   970  0E16                     	;# 
   971  0E17                     	;# 
   972  0E18                     	;# 
   973  0E19                     	;# 
   974  0E1A                     	;# 
   975  0E1B                     	;# 
   976  0E1C                     	;# 
   977  0E1D                     	;# 
   978  0E1E                     	;# 
   979  0E1F                     	;# 
   980  0E20                     	;# 
   981  0E21                     	;# 
   982  0E22                     	;# 
   983  0E23                     	;# 
   984  0E24                     	;# 
   985  0E25                     	;# 
   986  0E26                     	;# 
   987  0E27                     	;# 
   988  0E28                     	;# 
   989  0E29                     	;# 
   990  0E2A                     	;# 
   991  0E2B                     	;# 
   992  0E2C                     	;# 
   993  0E2D                     	;# 
   994  0E2E                     	;# 
   995  0E2F                     	;# 
   996  0E30                     	;# 
   997  0E31                     	;# 
   998  0E32                     	;# 
   999  0E33                     	;# 
  1000  0E34                     	;# 
  1001  0E35                     	;# 
  1002  0E36                     	;# 
  1003  0E37                     	;# 
  1004  0E8F                     	;# 
  1005  0E90                     	;# 
  1006  0E91                     	;# 
  1007  0E92                     	;# 
  1008  0E93                     	;# 
  1009  0E94                     	;# 
  1010  0E95                     	;# 
  1011  0E96                     	;# 
  1012  0E97                     	;# 
  1013  0E9C                     	;# 
  1014  0E9D                     	;# 
  1015  0E9E                     	;# 
  1016  0EA1                     	;# 
  1017  0EA2                     	;# 
  1018  0EA3                     	;# 
  1019  0EA4                     	;# 
  1020  0EA5                     	;# 
  1021  0EA9                     	;# 
  1022  0EAA                     	;# 
  1023  0EAB                     	;# 
  1024  0EAC                     	;# 
  1025  0EB1                     	;# 
  1026  0EB2                     	;# 
  1027  0EB3                     	;# 
  1028  0EB8                     	;# 
  1029  0EB9                     	;# 
  1030  0EBA                     	;# 
  1031  0EBB                     	;# 
  1032  0EBC                     	;# 
  1033  0EBD                     	;# 
  1034  0EBE                     	;# 
  1035  0EC3                     	;# 
  1036  0EC5                     	;# 
  1037  0EC6                     	;# 
  1038  0EC7                     	;# 
  1039  0EC8                     	;# 
  1040  0EC9                     	;# 
  1041  0ECA                     	;# 
  1042  0ECB                     	;# 
  1043  0ECC                     	;# 
  1044  0F10                     	;# 
  1045  0F11                     	;# 
  1046  0F12                     	;# 
  1047  0F13                     	;# 
  1048  0F14                     	;# 
  1049  0F15                     	;# 
  1050  0F16                     	;# 
  1051  0F17                     	;# 
  1052  0F18                     	;# 
  1053  0F19                     	;# 
  1054  0F1A                     	;# 
  1055  0F1B                     	;# 
  1056  0F1C                     	;# 
  1057  0F1D                     	;# 
  1058  0F1E                     	;# 
  1059  0F1F                     	;# 
  1060  0F20                     	;# 
  1061  0F21                     	;# 
  1062  0F22                     	;# 
  1063  0F23                     	;# 
  1064  0F24                     	;# 
  1065  0F25                     	;# 
  1066  0F26                     	;# 
  1067  0F27                     	;# 
  1068  0F38                     	;# 
  1069  0F39                     	;# 
  1070  0F3A                     	;# 
  1071  0F3B                     	;# 
  1072  0F3C                     	;# 
  1073  0F3D                     	;# 
  1074  0F3E                     	;# 
  1075  0F3F                     	;# 
  1076  0F40                     	;# 
  1077  0F41                     	;# 
  1078  0F43                     	;# 
  1079  0F44                     	;# 
  1080  0F45                     	;# 
  1081  0F46                     	;# 
  1082  0F47                     	;# 
  1083  0F48                     	;# 
  1084  0F49                     	;# 
  1085  0F4A                     	;# 
  1086  0F4B                     	;# 
  1087  0F4C                     	;# 
  1088  0F4E                     	;# 
  1089  0F4F                     	;# 
  1090  0F50                     	;# 
  1091  0F51                     	;# 
  1092  0F52                     	;# 
  1093  0F53                     	;# 
  1094  0F54                     	;# 
  1095  0F55                     	;# 
  1096  0F56                     	;# 
  1097  0F57                     	;# 
  1098  0F65                     	;# 
  1099  0F68                     	;# 
  1100  0F69                     	;# 
  1101  0F6A                     	;# 
  1102  0F6B                     	;# 
  1103  0FE4                     	;# 
  1104  0FE5                     	;# 
  1105  0FE6                     	;# 
  1106  0FE7                     	;# 
  1107  0FE8                     	;# 
  1108  0FE9                     	;# 
  1109  0FEA                     	;# 
  1110  0FEB                     	;# 
  1111  0FED                     	;# 
  1112  0FEE                     	;# 
  1113  0FEF                     	;# 
  1114  0000                     	;# 
  1115  0001                     	;# 
  1116  0002                     	;# 
  1117  0003                     	;# 
  1118  0004                     	;# 
  1119  0005                     	;# 
  1120  0006                     	;# 
  1121  0007                     	;# 
  1122  0008                     	;# 
  1123  0009                     	;# 
  1124  000A                     	;# 
  1125  000B                     	;# 
  1126  000C                     	;# 
  1127  000D                     	;# 
  1128  000E                     	;# 
  1129  0010                     	;# 
  1130  0011                     	;# 
  1131  0012                     	;# 
  1132  0013                     	;# 
  1133  0016                     	;# 
  1134  0017                     	;# 
  1135  0018                     	;# 
  1136  001C                     	;# 
  1137  001C                     	;# 
  1138  001D                     	;# 
  1139  001D                     	;# 
  1140  001E                     	;# 
  1141  001F                     	;# 
  1142  008C                     	;# 
  1143  008C                     	;# 
  1144  008D                     	;# 
  1145  008E                     	;# 
  1146  008E                     	;# 
  1147  008F                     	;# 
  1148  0090                     	;# 
  1149  0090                     	;# 
  1150  0091                     	;# 
  1151  0093                     	;# 
  1152  0094                     	;# 
  1153  0095                     	;# 
  1154  0096                     	;# 
  1155  0097                     	;# 
  1156  0098                     	;# 
  1157  0099                     	;# 
  1158  009A                     	;# 
  1159  009B                     	;# 
  1160  009C                     	;# 
  1161  009D                     	;# 
  1162  009E                     	;# 
  1163  010C                     	;# 
  1164  010D                     	;# 
  1165  010E                     	;# 
  1166  010E                     	;# 
  1167  010F                     	;# 
  1168  0110                     	;# 
  1169  0110                     	;# 
  1170  0111                     	;# 
  1171  0112                     	;# 
  1172  0112                     	;# 
  1173  0113                     	;# 
  1174  0114                     	;# 
  1175  0114                     	;# 
  1176  0115                     	;# 
  1177  0116                     	;# 
  1178  0116                     	;# 
  1179  0117                     	;# 
  1180  0119                     	;# 
  1181  0119                     	;# 
  1182  0119                     	;# 
  1183  011A                     	;# 
  1184  011A                     	;# 
  1185  011A                     	;# 
  1186  011B                     	;# 
  1187  011B                     	;# 
  1188  011B                     	;# 
  1189  011B                     	;# 
  1190  011B                     	;# 
  1191  011C                     	;# 
  1192  011C                     	;# 
  1193  011C                     	;# 
  1194  011D                     	;# 
  1195  011D                     	;# 
  1196  011D                     	;# 
  1197  011E                     	;# 
  1198  011E                     	;# 
  1199  011E                     	;# 
  1200  011F                     	;# 
  1201  011F                     	;# 
  1202  011F                     	;# 
  1203  011F                     	;# 
  1204  011F                     	;# 
  1205  018C                     	;# 
  1206  018D                     	;# 
  1207  018E                     	;# 
  1208  018F                     	;# 
  1209  0190                     	;# 
  1210  0191                     	;# 
  1211  0192                     	;# 
  1212  0196                     	;# 
  1213  0197                     	;# 
  1214  0198                     	;# 
  1215  0199                     	;# 
  1216  019A                     	;# 
  1217  019B                     	;# 
  1218  019C                     	;# 
  1219  020C                     	;# 
  1220  020C                     	;# 
  1221  020D                     	;# 
  1222  020E                     	;# 
  1223  020F                     	;# 
  1224  020F                     	;# 
  1225  0210                     	;# 
  1226  0210                     	;# 
  1227  0211                     	;# 
  1228  0211                     	;# 
  1229  0212                     	;# 
  1230  0212                     	;# 
  1231  0213                     	;# 
  1232  0214                     	;# 
  1233  0215                     	;# 
  1234  0215                     	;# 
  1235  0216                     	;# 
  1236  0216                     	;# 
  1237  0217                     	;# 
  1238  0217                     	;# 
  1239  0218                     	;# 
  1240  0218                     	;# 
  1241  0219                     	;# 
  1242  021A                     	;# 
  1243  021B                     	;# 
  1244  021B                     	;# 
  1245  021C                     	;# 
  1246  021C                     	;# 
  1247  021D                     	;# 
  1248  021D                     	;# 
  1249  021E                     	;# 
  1250  021F                     	;# 
  1251  028C                     	;# 
  1252  028C                     	;# 
  1253  028D                     	;# 
  1254  028D                     	;# 
  1255  028E                     	;# 
  1256  028F                     	;# 
  1257  0290                     	;# 
  1258  0290                     	;# 
  1259  0291                     	;# 
  1260  0292                     	;# 
  1261  0292                     	;# 
  1262  0293                     	;# 
  1263  0293                     	;# 
  1264  0294                     	;# 
  1265  0295                     	;# 
  1266  0296                     	;# 
  1267  0296                     	;# 
  1268  0297                     	;# 
  1269  0298                     	;# 
  1270  0298                     	;# 
  1271  0299                     	;# 
  1272  0299                     	;# 
  1273  029A                     	;# 
  1274  029B                     	;# 
  1275  029C                     	;# 
  1276  029C                     	;# 
  1277  029D                     	;# 
  1278  030C                     	;# 
  1279  030C                     	;# 
  1280  030D                     	;# 
  1281  030E                     	;# 
  1282  030F                     	;# 
  1283  0310                     	;# 
  1284  0310                     	;# 
  1285  0311                     	;# 
  1286  0312                     	;# 
  1287  0313                     	;# 
  1288  0314                     	;# 
  1289  0314                     	;# 
  1290  0315                     	;# 
  1291  0316                     	;# 
  1292  0317                     	;# 
  1293  0318                     	;# 
  1294  0318                     	;# 
  1295  0319                     	;# 
  1296  031A                     	;# 
  1297  031B                     	;# 
  1298  031C                     	;# 
  1299  031C                     	;# 
  1300  031D                     	;# 
  1301  031E                     	;# 
  1302  031F                     	;# 
  1303  038C                     	;# 
  1304  038C                     	;# 
  1305  038D                     	;# 
  1306  038E                     	;# 
  1307  0390                     	;# 
  1308  0390                     	;# 
  1309  0391                     	;# 
  1310  0392                     	;# 
  1311  040C                     	;# 
  1312  040D                     	;# 
  1313  040E                     	;# 
  1314  040F                     	;# 
  1315  0410                     	;# 
  1316  0411                     	;# 
  1317  0416                     	;# 
  1318  0416                     	;# 
  1319  0417                     	;# 
  1320  0418                     	;# 
  1321  0418                     	;# 
  1322  0419                     	;# 
  1323  041A                     	;# 
  1324  041A                     	;# 
  1325  041B                     	;# 
  1326  041C                     	;# 
  1327  041C                     	;# 
  1328  041D                     	;# 
  1329  041E                     	;# 
  1330  041F                     	;# 
  1331  048C                     	;# 
  1332  048C                     	;# 
  1333  048D                     	;# 
  1334  048E                     	;# 
  1335  048F                     	;# 
  1336  048F                     	;# 
  1337  0490                     	;# 
  1338  0491                     	;# 
  1339  0492                     	;# 
  1340  0492                     	;# 
  1341  0493                     	;# 
  1342  0494                     	;# 
  1343  0495                     	;# 
  1344  0495                     	;# 
  1345  0496                     	;# 
  1346  0497                     	;# 
  1347  0498                     	;# 
  1348  0499                     	;# 
  1349  049A                     	;# 
  1350  049B                     	;# 
  1351  049C                     	;# 
  1352  049D                     	;# 
  1353  050C                     	;# 
  1354  050C                     	;# 
  1355  050D                     	;# 
  1356  050E                     	;# 
  1357  050F                     	;# 
  1358  050F                     	;# 
  1359  0510                     	;# 
  1360  0511                     	;# 
  1361  0512                     	;# 
  1362  0512                     	;# 
  1363  0513                     	;# 
  1364  0514                     	;# 
  1365  0515                     	;# 
  1366  0515                     	;# 
  1367  0516                     	;# 
  1368  0517                     	;# 
  1369  0518                     	;# 
  1370  0519                     	;# 
  1371  051A                     	;# 
  1372  051B                     	;# 
  1373  051C                     	;# 
  1374  051D                     	;# 
  1375  058C                     	;# 
  1376  058C                     	;# 
  1377  058D                     	;# 
  1378  058E                     	;# 
  1379  058F                     	;# 
  1380  058F                     	;# 
  1381  0590                     	;# 
  1382  0591                     	;# 
  1383  0592                     	;# 
  1384  0593                     	;# 
  1385  060C                     	;# 
  1386  060D                     	;# 
  1387  060E                     	;# 
  1388  060F                     	;# 
  1389  0610                     	;# 
  1390  0611                     	;# 
  1391  0612                     	;# 
  1392  0613                     	;# 
  1393  0614                     	;# 
  1394  0616                     	;# 
  1395  0617                     	;# 
  1396  0618                     	;# 
  1397  0619                     	;# 
  1398  061A                     	;# 
  1399  061B                     	;# 
  1400  061C                     	;# 
  1401  061D                     	;# 
  1402  061E                     	;# 
  1403  068C                     	;# 
  1404  068D                     	;# 
  1405  068E                     	;# 
  1406  068F                     	;# 
  1407  0690                     	;# 
  1408  0691                     	;# 
  1409  0692                     	;# 
  1410  0693                     	;# 
  1411  0694                     	;# 
  1412  070C                     	;# 
  1413  070D                     	;# 
  1414  070E                     	;# 
  1415  070F                     	;# 
  1416  0710                     	;# 
  1417  0711                     	;# 
  1418  0712                     	;# 
  1419  0713                     	;# 
  1420  0714                     	;# 
  1421  0716                     	;# 
  1422  0717                     	;# 
  1423  0718                     	;# 
  1424  0719                     	;# 
  1425  071A                     	;# 
  1426  071B                     	;# 
  1427  071C                     	;# 
  1428  071D                     	;# 
  1429  071E                     	;# 
  1430  0796                     	;# 
  1431  0797                     	;# 
  1432  0798                     	;# 
  1433  0799                     	;# 
  1434  079A                     	;# 
  1435  079B                     	;# 
  1436  080C                     	;# 
  1437  080D                     	;# 
  1438  080E                     	;# 
  1439  080F                     	;# 
  1440  0810                     	;# 
  1441  0811                     	;# 
  1442  0812                     	;# 
  1443  0813                     	;# 
  1444  0814                     	;# 
  1445  081A                     	;# 
  1446  081B                     	;# 
  1447  081C                     	;# 
  1448  081D                     	;# 
  1449  081E                     	;# 
  1450  081F                     	;# 
  1451  088C                     	;# 
  1452  088D                     	;# 
  1453  088E                     	;# 
  1454  088F                     	;# 
  1455  0890                     	;# 
  1456  0891                     	;# 
  1457  0892                     	;# 
  1458  0893                     	;# 
  1459  0895                     	;# 
  1460  0896                     	;# 
  1461  0897                     	;# 
  1462  0898                     	;# 
  1463  0899                     	;# 
  1464  089A                     	;# 
  1465  089B                     	;# 
  1466  090C                     	;# 
  1467  090E                     	;# 
  1468  090F                     	;# 
  1469  091F                     	;# 
  1470  091F                     	;# 
  1471  098F                     	;# 
  1472  098F                     	;# 
  1473  0990                     	;# 
  1474  0991                     	;# 
  1475  0992                     	;# 
  1476  0993                     	;# 
  1477  0994                     	;# 
  1478  0995                     	;# 
  1479  0996                     	;# 
  1480  0997                     	;# 
  1481  0E0F                     	;# 
  1482  0E10                     	;# 
  1483  0E11                     	;# 
  1484  0E12                     	;# 
  1485  0E13                     	;# 
  1486  0E14                     	;# 
  1487  0E15                     	;# 
  1488  0E16                     	;# 
  1489  0E17                     	;# 
  1490  0E18                     	;# 
  1491  0E19                     	;# 
  1492  0E1A                     	;# 
  1493  0E1B                     	;# 
  1494  0E1C                     	;# 
  1495  0E1D                     	;# 
  1496  0E1E                     	;# 
  1497  0E1F                     	;# 
  1498  0E20                     	;# 
  1499  0E21                     	;# 
  1500  0E22                     	;# 
  1501  0E23                     	;# 
  1502  0E24                     	;# 
  1503  0E25                     	;# 
  1504  0E26                     	;# 
  1505  0E27                     	;# 
  1506  0E28                     	;# 
  1507  0E29                     	;# 
  1508  0E2A                     	;# 
  1509  0E2B                     	;# 
  1510  0E2C                     	;# 
  1511  0E2D                     	;# 
  1512  0E2E                     	;# 
  1513  0E2F                     	;# 
  1514  0E30                     	;# 
  1515  0E31                     	;# 
  1516  0E32                     	;# 
  1517  0E33                     	;# 
  1518  0E34                     	;# 
  1519  0E35                     	;# 
  1520  0E36                     	;# 
  1521  0E37                     	;# 
  1522  0E8F                     	;# 
  1523  0E90                     	;# 
  1524  0E91                     	;# 
  1525  0E92                     	;# 
  1526  0E93                     	;# 
  1527  0E94                     	;# 
  1528  0E95                     	;# 
  1529  0E96                     	;# 
  1530  0E97                     	;# 
  1531  0E9C                     	;# 
  1532  0E9D                     	;# 
  1533  0E9E                     	;# 
  1534  0EA1                     	;# 
  1535  0EA2                     	;# 
  1536  0EA3                     	;# 
  1537  0EA4                     	;# 
  1538  0EA5                     	;# 
  1539  0EA9                     	;# 
  1540  0EAA                     	;# 
  1541  0EAB                     	;# 
  1542  0EAC                     	;# 
  1543  0EB1                     	;# 
  1544  0EB2                     	;# 
  1545  0EB3                     	;# 
  1546  0EB8                     	;# 
  1547  0EB9                     	;# 
  1548  0EBA                     	;# 
  1549  0EBB                     	;# 
  1550  0EBC                     	;# 
  1551  0EBD                     	;# 
  1552  0EBE                     	;# 
  1553  0EC3                     	;# 
  1554  0EC5                     	;# 
  1555  0EC6                     	;# 
  1556  0EC7                     	;# 
  1557  0EC8                     	;# 
  1558  0EC9                     	;# 
  1559  0ECA                     	;# 
  1560  0ECB                     	;# 
  1561  0ECC                     	;# 
  1562  0F10                     	;# 
  1563  0F11                     	;# 
  1564  0F12                     	;# 
  1565  0F13                     	;# 
  1566  0F14                     	;# 
  1567  0F15                     	;# 
  1568  0F16                     	;# 
  1569  0F17                     	;# 
  1570  0F18                     	;# 
  1571  0F19                     	;# 
  1572  0F1A                     	;# 
  1573  0F1B                     	;# 
  1574  0F1C                     	;# 
  1575  0F1D                     	;# 
  1576  0F1E                     	;# 
  1577  0F1F                     	;# 
  1578  0F20                     	;# 
  1579  0F21                     	;# 
  1580  0F22                     	;# 
  1581  0F23                     	;# 
  1582  0F24                     	;# 
  1583  0F25                     	;# 
  1584  0F26                     	;# 
  1585  0F27                     	;# 
  1586  0F38                     	;# 
  1587  0F39                     	;# 
  1588  0F3A                     	;# 
  1589  0F3B                     	;# 
  1590  0F3C                     	;# 
  1591  0F3D                     	;# 
  1592  0F3E                     	;# 
  1593  0F3F                     	;# 
  1594  0F40                     	;# 
  1595  0F41                     	;# 
  1596  0F43                     	;# 
  1597  0F44                     	;# 
  1598  0F45                     	;# 
  1599  0F46                     	;# 
  1600  0F47                     	;# 
  1601  0F48                     	;# 
  1602  0F49                     	;# 
  1603  0F4A                     	;# 
  1604  0F4B                     	;# 
  1605  0F4C                     	;# 
  1606  0F4E                     	;# 
  1607  0F4F                     	;# 
  1608  0F50                     	;# 
  1609  0F51                     	;# 
  1610  0F52                     	;# 
  1611  0F53                     	;# 
  1612  0F54                     	;# 
  1613  0F55                     	;# 
  1614  0F56                     	;# 
  1615  0F57                     	;# 
  1616  0F65                     	;# 
  1617  0F68                     	;# 
  1618  0F69                     	;# 
  1619  0F6A                     	;# 
  1620  0F6B                     	;# 
  1621  0FE4                     	;# 
  1622  0FE5                     	;# 
  1623  0FE6                     	;# 
  1624  0FE7                     	;# 
  1625  0FE8                     	;# 
  1626  0FE9                     	;# 
  1627  0FEA                     	;# 
  1628  0FEB                     	;# 
  1629  0FED                     	;# 
  1630  0FEE                     	;# 
  1631  0FEF                     	;# 
  1632  0000                     	;# 
  1633  0001                     	;# 
  1634  0002                     	;# 
  1635  0003                     	;# 
  1636  0004                     	;# 
  1637  0005                     	;# 
  1638  0006                     	;# 
  1639  0007                     	;# 
  1640  0008                     	;# 
  1641  0009                     	;# 
  1642  000A                     	;# 
  1643  000B                     	;# 
  1644  000C                     	;# 
  1645  000D                     	;# 
  1646  000E                     	;# 
  1647  0010                     	;# 
  1648  0011                     	;# 
  1649  0012                     	;# 
  1650  0013                     	;# 
  1651  0016                     	;# 
  1652  0017                     	;# 
  1653  0018                     	;# 
  1654  001C                     	;# 
  1655  001C                     	;# 
  1656  001D                     	;# 
  1657  001D                     	;# 
  1658  001E                     	;# 
  1659  001F                     	;# 
  1660  008C                     	;# 
  1661  008C                     	;# 
  1662  008D                     	;# 
  1663  008E                     	;# 
  1664  008E                     	;# 
  1665  008F                     	;# 
  1666  0090                     	;# 
  1667  0090                     	;# 
  1668  0091                     	;# 
  1669  0093                     	;# 
  1670  0094                     	;# 
  1671  0095                     	;# 
  1672  0096                     	;# 
  1673  0097                     	;# 
  1674  0098                     	;# 
  1675  0099                     	;# 
  1676  009A                     	;# 
  1677  009B                     	;# 
  1678  009C                     	;# 
  1679  009D                     	;# 
  1680  009E                     	;# 
  1681  010C                     	;# 
  1682  010D                     	;# 
  1683  010E                     	;# 
  1684  010E                     	;# 
  1685  010F                     	;# 
  1686  0110                     	;# 
  1687  0110                     	;# 
  1688  0111                     	;# 
  1689  0112                     	;# 
  1690  0112                     	;# 
  1691  0113                     	;# 
  1692  0114                     	;# 
  1693  0114                     	;# 
  1694  0115                     	;# 
  1695  0116                     	;# 
  1696  0116                     	;# 
  1697  0117                     	;# 
  1698  0119                     	;# 
  1699  0119                     	;# 
  1700  0119                     	;# 
  1701  011A                     	;# 
  1702  011A                     	;# 
  1703  011A                     	;# 
  1704  011B                     	;# 
  1705  011B                     	;# 
  1706  011B                     	;# 
  1707  011B                     	;# 
  1708  011B                     	;# 
  1709  011C                     	;# 
  1710  011C                     	;# 
  1711  011C                     	;# 
  1712  011D                     	;# 
  1713  011D                     	;# 
  1714  011D                     	;# 
  1715  011E                     	;# 
  1716  011E                     	;# 
  1717  011E                     	;# 
  1718  011F                     	;# 
  1719  011F                     	;# 
  1720  011F                     	;# 
  1721  011F                     	;# 
  1722  011F                     	;# 
  1723  018C                     	;# 
  1724  018D                     	;# 
  1725  018E                     	;# 
  1726  018F                     	;# 
  1727  0190                     	;# 
  1728  0191                     	;# 
  1729  0192                     	;# 
  1730  0196                     	;# 
  1731  0197                     	;# 
  1732  0198                     	;# 
  1733  0199                     	;# 
  1734  019A                     	;# 
  1735  019B                     	;# 
  1736  019C                     	;# 
  1737  020C                     	;# 
  1738  020C                     	;# 
  1739  020D                     	;# 
  1740  020E                     	;# 
  1741  020F                     	;# 
  1742  020F                     	;# 
  1743  0210                     	;# 
  1744  0210                     	;# 
  1745  0211                     	;# 
  1746  0211                     	;# 
  1747  0212                     	;# 
  1748  0212                     	;# 
  1749  0213                     	;# 
  1750  0214                     	;# 
  1751  0215                     	;# 
  1752  0215                     	;# 
  1753  0216                     	;# 
  1754  0216                     	;# 
  1755  0217                     	;# 
  1756  0217                     	;# 
  1757  0218                     	;# 
  1758  0218                     	;# 
  1759  0219                     	;# 
  1760  021A                     	;# 
  1761  021B                     	;# 
  1762  021B                     	;# 
  1763  021C                     	;# 
  1764  021C                     	;# 
  1765  021D                     	;# 
  1766  021D                     	;# 
  1767  021E                     	;# 
  1768  021F                     	;# 
  1769  028C                     	;# 
  1770  028C                     	;# 
  1771  028D                     	;# 
  1772  028D                     	;# 
  1773  028E                     	;# 
  1774  028F                     	;# 
  1775  0290                     	;# 
  1776  0290                     	;# 
  1777  0291                     	;# 
  1778  0292                     	;# 
  1779  0292                     	;# 
  1780  0293                     	;# 
  1781  0293                     	;# 
  1782  0294                     	;# 
  1783  0295                     	;# 
  1784  0296                     	;# 
  1785  0296                     	;# 
  1786  0297                     	;# 
  1787  0298                     	;# 
  1788  0298                     	;# 
  1789  0299                     	;# 
  1790  0299                     	;# 
  1791  029A                     	;# 
  1792  029B                     	;# 
  1793  029C                     	;# 
  1794  029C                     	;# 
  1795  029D                     	;# 
  1796  030C                     	;# 
  1797  030C                     	;# 
  1798  030D                     	;# 
  1799  030E                     	;# 
  1800  030F                     	;# 
  1801  0310                     	;# 
  1802  0310                     	;# 
  1803  0311                     	;# 
  1804  0312                     	;# 
  1805  0313                     	;# 
  1806  0314                     	;# 
  1807  0314                     	;# 
  1808  0315                     	;# 
  1809  0316                     	;# 
  1810  0317                     	;# 
  1811  0318                     	;# 
  1812  0318                     	;# 
  1813  0319                     	;# 
  1814  031A                     	;# 
  1815  031B                     	;# 
  1816  031C                     	;# 
  1817  031C                     	;# 
  1818  031D                     	;# 
  1819  031E                     	;# 
  1820  031F                     	;# 
  1821  038C                     	;# 
  1822  038C                     	;# 
  1823  038D                     	;# 
  1824  038E                     	;# 
  1825  0390                     	;# 
  1826  0390                     	;# 
  1827  0391                     	;# 
  1828  0392                     	;# 
  1829  040C                     	;# 
  1830  040D                     	;# 
  1831  040E                     	;# 
  1832  040F                     	;# 
  1833  0410                     	;# 
  1834  0411                     	;# 
  1835  0416                     	;# 
  1836  0416                     	;# 
  1837  0417                     	;# 
  1838  0418                     	;# 
  1839  0418                     	;# 
  1840  0419                     	;# 
  1841  041A                     	;# 
  1842  041A                     	;# 
  1843  041B                     	;# 
  1844  041C                     	;# 
  1845  041C                     	;# 
  1846  041D                     	;# 
  1847  041E                     	;# 
  1848  041F                     	;# 
  1849  048C                     	;# 
  1850  048C                     	;# 
  1851  048D                     	;# 
  1852  048E                     	;# 
  1853  048F                     	;# 
  1854  048F                     	;# 
  1855  0490                     	;# 
  1856  0491                     	;# 
  1857  0492                     	;# 
  1858  0492                     	;# 
  1859  0493                     	;# 
  1860  0494                     	;# 
  1861  0495                     	;# 
  1862  0495                     	;# 
  1863  0496                     	;# 
  1864  0497                     	;# 
  1865  0498                     	;# 
  1866  0499                     	;# 
  1867  049A                     	;# 
  1868  049B                     	;# 
  1869  049C                     	;# 
  1870  049D                     	;# 
  1871  050C                     	;# 
  1872  050C                     	;# 
  1873  050D                     	;# 
  1874  050E                     	;# 
  1875  050F                     	;# 
  1876  050F                     	;# 
  1877  0510                     	;# 
  1878  0511                     	;# 
  1879  0512                     	;# 
  1880  0512                     	;# 
  1881  0513                     	;# 
  1882  0514                     	;# 
  1883  0515                     	;# 
  1884  0515                     	;# 
  1885  0516                     	;# 
  1886  0517                     	;# 
  1887  0518                     	;# 
  1888  0519                     	;# 
  1889  051A                     	;# 
  1890  051B                     	;# 
  1891  051C                     	;# 
  1892  051D                     	;# 
  1893  058C                     	;# 
  1894  058C                     	;# 
  1895  058D                     	;# 
  1896  058E                     	;# 
  1897  058F                     	;# 
  1898  058F                     	;# 
  1899  0590                     	;# 
  1900  0591                     	;# 
  1901  0592                     	;# 
  1902  0593                     	;# 
  1903  060C                     	;# 
  1904  060D                     	;# 
  1905  060E                     	;# 
  1906  060F                     	;# 
  1907  0610                     	;# 
  1908  0611                     	;# 
  1909  0612                     	;# 
  1910  0613                     	;# 
  1911  0614                     	;# 
  1912  0616                     	;# 
  1913  0617                     	;# 
  1914  0618                     	;# 
  1915  0619                     	;# 
  1916  061A                     	;# 
  1917  061B                     	;# 
  1918  061C                     	;# 
  1919  061D                     	;# 
  1920  061E                     	;# 
  1921  068C                     	;# 
  1922  068D                     	;# 
  1923  068E                     	;# 
  1924  068F                     	;# 
  1925  0690                     	;# 
  1926  0691                     	;# 
  1927  0692                     	;# 
  1928  0693                     	;# 
  1929  0694                     	;# 
  1930  070C                     	;# 
  1931  070D                     	;# 
  1932  070E                     	;# 
  1933  070F                     	;# 
  1934  0710                     	;# 
  1935  0711                     	;# 
  1936  0712                     	;# 
  1937  0713                     	;# 
  1938  0714                     	;# 
  1939  0716                     	;# 
  1940  0717                     	;# 
  1941  0718                     	;# 
  1942  0719                     	;# 
  1943  071A                     	;# 
  1944  071B                     	;# 
  1945  071C                     	;# 
  1946  071D                     	;# 
  1947  071E                     	;# 
  1948  0796                     	;# 
  1949  0797                     	;# 
  1950  0798                     	;# 
  1951  0799                     	;# 
  1952  079A                     	;# 
  1953  079B                     	;# 
  1954  080C                     	;# 
  1955  080D                     	;# 
  1956  080E                     	;# 
  1957  080F                     	;# 
  1958  0810                     	;# 
  1959  0811                     	;# 
  1960  0812                     	;# 
  1961  0813                     	;# 
  1962  0814                     	;# 
  1963  081A                     	;# 
  1964  081B                     	;# 
  1965  081C                     	;# 
  1966  081D                     	;# 
  1967  081E                     	;# 
  1968  081F                     	;# 
  1969  088C                     	;# 
  1970  088D                     	;# 
  1971  088E                     	;# 
  1972  088F                     	;# 
  1973  0890                     	;# 
  1974  0891                     	;# 
  1975  0892                     	;# 
  1976  0893                     	;# 
  1977  0895                     	;# 
  1978  0896                     	;# 
  1979  0897                     	;# 
  1980  0898                     	;# 
  1981  0899                     	;# 
  1982  089A                     	;# 
  1983  089B                     	;# 
  1984  090C                     	;# 
  1985  090E                     	;# 
  1986  090F                     	;# 
  1987  091F                     	;# 
  1988  091F                     	;# 
  1989  098F                     	;# 
  1990  098F                     	;# 
  1991  0990                     	;# 
  1992  0991                     	;# 
  1993  0992                     	;# 
  1994  0993                     	;# 
  1995  0994                     	;# 
  1996  0995                     	;# 
  1997  0996                     	;# 
  1998  0997                     	;# 
  1999  0E0F                     	;# 
  2000  0E10                     	;# 
  2001  0E11                     	;# 
  2002  0E12                     	;# 
  2003  0E13                     	;# 
  2004  0E14                     	;# 
  2005  0E15                     	;# 
  2006  0E16                     	;# 
  2007  0E17                     	;# 
  2008  0E18                     	;# 
  2009  0E19                     	;# 
  2010  0E1A                     	;# 
  2011  0E1B                     	;# 
  2012  0E1C                     	;# 
  2013  0E1D                     	;# 
  2014  0E1E                     	;# 
  2015  0E1F                     	;# 
  2016  0E20                     	;# 
  2017  0E21                     	;# 
  2018  0E22                     	;# 
  2019  0E23                     	;# 
  2020  0E24                     	;# 
  2021  0E25                     	;# 
  2022  0E26                     	;# 
  2023  0E27                     	;# 
  2024  0E28                     	;# 
  2025  0E29                     	;# 
  2026  0E2A                     	;# 
  2027  0E2B                     	;# 
  2028  0E2C                     	;# 
  2029  0E2D                     	;# 
  2030  0E2E                     	;# 
  2031  0E2F                     	;# 
  2032  0E30                     	;# 
  2033  0E31                     	;# 
  2034  0E32                     	;# 
  2035  0E33                     	;# 
  2036  0E34                     	;# 
  2037  0E35                     	;# 
  2038  0E36                     	;# 
  2039  0E37                     	;# 
  2040  0E8F                     	;# 
  2041  0E90                     	;# 
  2042  0E91                     	;# 
  2043  0E92                     	;# 
  2044  0E93                     	;# 
  2045  0E94                     	;# 
  2046  0E95                     	;# 
  2047  0E96                     	;# 
  2048  0E97                     	;# 
  2049  0E9C                     	;# 
  2050  0E9D                     	;# 
  2051  0E9E                     	;# 
  2052  0EA1                     	;# 
  2053  0EA2                     	;# 
  2054  0EA3                     	;# 
  2055  0EA4                     	;# 
  2056  0EA5                     	;# 
  2057  0EA9                     	;# 
  2058  0EAA                     	;# 
  2059  0EAB                     	;# 
  2060  0EAC                     	;# 
  2061  0EB1                     	;# 
  2062  0EB2                     	;# 
  2063  0EB3                     	;# 
  2064  0EB8                     	;# 
  2065  0EB9                     	;# 
  2066  0EBA                     	;# 
  2067  0EBB                     	;# 
  2068  0EBC                     	;# 
  2069  0EBD                     	;# 
  2070  0EBE                     	;# 
  2071  0EC3                     	;# 
  2072  0EC5                     	;# 
  2073  0EC6                     	;# 
  2074  0EC7                     	;# 
  2075  0EC8                     	;# 
  2076  0EC9                     	;# 
  2077  0ECA                     	;# 
  2078  0ECB                     	;# 
  2079  0ECC                     	;# 
  2080  0F10                     	;# 
  2081  0F11                     	;# 
  2082  0F12                     	;# 
  2083  0F13                     	;# 
  2084  0F14                     	;# 
  2085  0F15                     	;# 
  2086  0F16                     	;# 
  2087  0F17                     	;# 
  2088  0F18                     	;# 
  2089  0F19                     	;# 
  2090  0F1A                     	;# 
  2091  0F1B                     	;# 
  2092  0F1C                     	;# 
  2093  0F1D                     	;# 
  2094  0F1E                     	;# 
  2095  0F1F                     	;# 
  2096  0F20                     	;# 
  2097  0F21                     	;# 
  2098  0F22                     	;# 
  2099  0F23                     	;# 
  2100  0F24                     	;# 
  2101  0F25                     	;# 
  2102  0F26                     	;# 
  2103  0F27                     	;# 
  2104  0F38                     	;# 
  2105  0F39                     	;# 
  2106  0F3A                     	;# 
  2107  0F3B                     	;# 
  2108  0F3C                     	;# 
  2109  0F3D                     	;# 
  2110  0F3E                     	;# 
  2111  0F3F                     	;# 
  2112  0F40                     	;# 
  2113  0F41                     	;# 
  2114  0F43                     	;# 
  2115  0F44                     	;# 
  2116  0F45                     	;# 
  2117  0F46                     	;# 
  2118  0F47                     	;# 
  2119  0F48                     	;# 
  2120  0F49                     	;# 
  2121  0F4A                     	;# 
  2122  0F4B                     	;# 
  2123  0F4C                     	;# 
  2124  0F4E                     	;# 
  2125  0F4F                     	;# 
  2126  0F50                     	;# 
  2127  0F51                     	;# 
  2128  0F52                     	;# 
  2129  0F53                     	;# 
  2130  0F54                     	;# 
  2131  0F55                     	;# 
  2132  0F56                     	;# 
  2133  0F57                     	;# 
  2134  0F65                     	;# 
  2135  0F68                     	;# 
  2136  0F69                     	;# 
  2137  0F6A                     	;# 
  2138  0F6B                     	;# 
  2139  0FE4                     	;# 
  2140  0FE5                     	;# 
  2141  0FE6                     	;# 
  2142  0FE7                     	;# 
  2143  0FE8                     	;# 
  2144  0FE9                     	;# 
  2145  0FEA                     	;# 
  2146  0FEB                     	;# 
  2147  0FED                     	;# 
  2148  0FEE                     	;# 
  2149  0FEF                     	;# 
  2150  0000                     	;# 
  2151  0001                     	;# 
  2152  0002                     	;# 
  2153  0003                     	;# 
  2154  0004                     	;# 
  2155  0005                     	;# 
  2156  0006                     	;# 
  2157  0007                     	;# 
  2158  0008                     	;# 
  2159  0009                     	;# 
  2160  000A                     	;# 
  2161  000B                     	;# 
  2162  000C                     	;# 
  2163  000D                     	;# 
  2164  000E                     	;# 
  2165  0010                     	;# 
  2166  0011                     	;# 
  2167  0012                     	;# 
  2168  0013                     	;# 
  2169  0016                     	;# 
  2170  0017                     	;# 
  2171  0018                     	;# 
  2172  001C                     	;# 
  2173  001C                     	;# 
  2174  001D                     	;# 
  2175  001D                     	;# 
  2176  001E                     	;# 
  2177  001F                     	;# 
  2178  008C                     	;# 
  2179  008C                     	;# 
  2180  008D                     	;# 
  2181  008E                     	;# 
  2182  008E                     	;# 
  2183  008F                     	;# 
  2184  0090                     	;# 
  2185  0090                     	;# 
  2186  0091                     	;# 
  2187  0093                     	;# 
  2188  0094                     	;# 
  2189  0095                     	;# 
  2190  0096                     	;# 
  2191  0097                     	;# 
  2192  0098                     	;# 
  2193  0099                     	;# 
  2194  009A                     	;# 
  2195  009B                     	;# 
  2196  009C                     	;# 
  2197  009D                     	;# 
  2198  009E                     	;# 
  2199  010C                     	;# 
  2200  010D                     	;# 
  2201  010E                     	;# 
  2202  010E                     	;# 
  2203  010F                     	;# 
  2204  0110                     	;# 
  2205  0110                     	;# 
  2206  0111                     	;# 
  2207  0112                     	;# 
  2208  0112                     	;# 
  2209  0113                     	;# 
  2210  0114                     	;# 
  2211  0114                     	;# 
  2212  0115                     	;# 
  2213  0116                     	;# 
  2214  0116                     	;# 
  2215  0117                     	;# 
  2216  0119                     	;# 
  2217  0119                     	;# 
  2218  0119                     	;# 
  2219  011A                     	;# 
  2220  011A                     	;# 
  2221  011A                     	;# 
  2222  011B                     	;# 
  2223  011B                     	;# 
  2224  011B                     	;# 
  2225  011B                     	;# 
  2226  011B                     	;# 
  2227  011C                     	;# 
  2228  011C                     	;# 
  2229  011C                     	;# 
  2230  011D                     	;# 
  2231  011D                     	;# 
  2232  011D                     	;# 
  2233  011E                     	;# 
  2234  011E                     	;# 
  2235  011E                     	;# 
  2236  011F                     	;# 
  2237  011F                     	;# 
  2238  011F                     	;# 
  2239  011F                     	;# 
  2240  011F                     	;# 
  2241  018C                     	;# 
  2242  018D                     	;# 
  2243  018E                     	;# 
  2244  018F                     	;# 
  2245  0190                     	;# 
  2246  0191                     	;# 
  2247  0192                     	;# 
  2248  0196                     	;# 
  2249  0197                     	;# 
  2250  0198                     	;# 
  2251  0199                     	;# 
  2252  019A                     	;# 
  2253  019B                     	;# 
  2254  019C                     	;# 
  2255  020C                     	;# 
  2256  020C                     	;# 
  2257  020D                     	;# 
  2258  020E                     	;# 
  2259  020F                     	;# 
  2260  020F                     	;# 
  2261  0210                     	;# 
  2262  0210                     	;# 
  2263  0211                     	;# 
  2264  0211                     	;# 
  2265  0212                     	;# 
  2266  0212                     	;# 
  2267  0213                     	;# 
  2268  0214                     	;# 
  2269  0215                     	;# 
  2270  0215                     	;# 
  2271  0216                     	;# 
  2272  0216                     	;# 
  2273  0217                     	;# 
  2274  0217                     	;# 
  2275  0218                     	;# 
  2276  0218                     	;# 
  2277  0219                     	;# 
  2278  021A                     	;# 
  2279  021B                     	;# 
  2280  021B                     	;# 
  2281  021C                     	;# 
  2282  021C                     	;# 
  2283  021D                     	;# 
  2284  021D                     	;# 
  2285  021E                     	;# 
  2286  021F                     	;# 
  2287  028C                     	;# 
  2288  028C                     	;# 
  2289  028D                     	;# 
  2290  028D                     	;# 
  2291  028E                     	;# 
  2292  028F                     	;# 
  2293  0290                     	;# 
  2294  0290                     	;# 
  2295  0291                     	;# 
  2296  0292                     	;# 
  2297  0292                     	;# 
  2298  0293                     	;# 
  2299  0293                     	;# 
  2300  0294                     	;# 
  2301  0295                     	;# 
  2302  0296                     	;# 
  2303  0296                     	;# 
  2304  0297                     	;# 
  2305  0298                     	;# 
  2306  0298                     	;# 
  2307  0299                     	;# 
  2308  0299                     	;# 
  2309  029A                     	;# 
  2310  029B                     	;# 
  2311  029C                     	;# 
  2312  029C                     	;# 
  2313  029D                     	;# 
  2314  030C                     	;# 
  2315  030C                     	;# 
  2316  030D                     	;# 
  2317  030E                     	;# 
  2318  030F                     	;# 
  2319  0310                     	;# 
  2320  0310                     	;# 
  2321  0311                     	;# 
  2322  0312                     	;# 
  2323  0313                     	;# 
  2324  0314                     	;# 
  2325  0314                     	;# 
  2326  0315                     	;# 
  2327  0316                     	;# 
  2328  0317                     	;# 
  2329  0318                     	;# 
  2330  0318                     	;# 
  2331  0319                     	;# 
  2332  031A                     	;# 
  2333  031B                     	;# 
  2334  031C                     	;# 
  2335  031C                     	;# 
  2336  031D                     	;# 
  2337  031E                     	;# 
  2338  031F                     	;# 
  2339  038C                     	;# 
  2340  038C                     	;# 
  2341  038D                     	;# 
  2342  038E                     	;# 
  2343  0390                     	;# 
  2344  0390                     	;# 
  2345  0391                     	;# 
  2346  0392                     	;# 
  2347  040C                     	;# 
  2348  040D                     	;# 
  2349  040E                     	;# 
  2350  040F                     	;# 
  2351  0410                     	;# 
  2352  0411                     	;# 
  2353  0416                     	;# 
  2354  0416                     	;# 
  2355  0417                     	;# 
  2356  0418                     	;# 
  2357  0418                     	;# 
  2358  0419                     	;# 
  2359  041A                     	;# 
  2360  041A                     	;# 
  2361  041B                     	;# 
  2362  041C                     	;# 
  2363  041C                     	;# 
  2364  041D                     	;# 
  2365  041E                     	;# 
  2366  041F                     	;# 
  2367  048C                     	;# 
  2368  048C                     	;# 
  2369  048D                     	;# 
  2370  048E                     	;# 
  2371  048F                     	;# 
  2372  048F                     	;# 
  2373  0490                     	;# 
  2374  0491                     	;# 
  2375  0492                     	;# 
  2376  0492                     	;# 
  2377  0493                     	;# 
  2378  0494                     	;# 
  2379  0495                     	;# 
  2380  0495                     	;# 
  2381  0496                     	;# 
  2382  0497                     	;# 
  2383  0498                     	;# 
  2384  0499                     	;# 
  2385  049A                     	;# 
  2386  049B                     	;# 
  2387  049C                     	;# 
  2388  049D                     	;# 
  2389  050C                     	;# 
  2390  050C                     	;# 
  2391  050D                     	;# 
  2392  050E                     	;# 
  2393  050F                     	;# 
  2394  050F                     	;# 
  2395  0510                     	;# 
  2396  0511                     	;# 
  2397  0512                     	;# 
  2398  0512                     	;# 
  2399  0513                     	;# 
  2400  0514                     	;# 
  2401  0515                     	;# 
  2402  0515                     	;# 
  2403  0516                     	;# 
  2404  0517                     	;# 
  2405  0518                     	;# 
  2406  0519                     	;# 
  2407  051A                     	;# 
  2408  051B                     	;# 
  2409  051C                     	;# 
  2410  051D                     	;# 
  2411  058C                     	;# 
  2412  058C                     	;# 
  2413  058D                     	;# 
  2414  058E                     	;# 
  2415  058F                     	;# 
  2416  058F                     	;# 
  2417  0590                     	;# 
  2418  0591                     	;# 
  2419  0592                     	;# 
  2420  0593                     	;# 
  2421  060C                     	;# 
  2422  060D                     	;# 
  2423  060E                     	;# 
  2424  060F                     	;# 
  2425  0610                     	;# 
  2426  0611                     	;# 
  2427  0612                     	;# 
  2428  0613                     	;# 
  2429  0614                     	;# 
  2430  0616                     	;# 
  2431  0617                     	;# 
  2432  0618                     	;# 
  2433  0619                     	;# 
  2434  061A                     	;# 
  2435  061B                     	;# 
  2436  061C                     	;# 
  2437  061D                     	;# 
  2438  061E                     	;# 
  2439  068C                     	;# 
  2440  068D                     	;# 
  2441  068E                     	;# 
  2442  068F                     	;# 
  2443  0690                     	;# 
  2444  0691                     	;# 
  2445  0692                     	;# 
  2446  0693                     	;# 
  2447  0694                     	;# 
  2448  070C                     	;# 
  2449  070D                     	;# 
  2450  070E                     	;# 
  2451  070F                     	;# 
  2452  0710                     	;# 
  2453  0711                     	;# 
  2454  0712                     	;# 
  2455  0713                     	;# 
  2456  0714                     	;# 
  2457  0716                     	;# 
  2458  0717                     	;# 
  2459  0718                     	;# 
  2460  0719                     	;# 
  2461  071A                     	;# 
  2462  071B                     	;# 
  2463  071C                     	;# 
  2464  071D                     	;# 
  2465  071E                     	;# 
  2466  0796                     	;# 
  2467  0797                     	;# 
  2468  0798                     	;# 
  2469  0799                     	;# 
  2470  079A                     	;# 
  2471  079B                     	;# 
  2472  080C                     	;# 
  2473  080D                     	;# 
  2474  080E                     	;# 
  2475  080F                     	;# 
  2476  0810                     	;# 
  2477  0811                     	;# 
  2478  0812                     	;# 
  2479  0813                     	;# 
  2480  0814                     	;# 
  2481  081A                     	;# 
  2482  081B                     	;# 
  2483  081C                     	;# 
  2484  081D                     	;# 
  2485  081E                     	;# 
  2486  081F                     	;# 
  2487  088C                     	;# 
  2488  088D                     	;# 
  2489  088E                     	;# 
  2490  088F                     	;# 
  2491  0890                     	;# 
  2492  0891                     	;# 
  2493  0892                     	;# 
  2494  0893                     	;# 
  2495  0895                     	;# 
  2496  0896                     	;# 
  2497  0897                     	;# 
  2498  0898                     	;# 
  2499  0899                     	;# 
  2500  089A                     	;# 
  2501  089B                     	;# 
  2502  090C                     	;# 
  2503  090E                     	;# 
  2504  090F                     	;# 
  2505  091F                     	;# 
  2506  091F                     	;# 
  2507  098F                     	;# 
  2508  098F                     	;# 
  2509  0990                     	;# 
  2510  0991                     	;# 
  2511  0992                     	;# 
  2512  0993                     	;# 
  2513  0994                     	;# 
  2514  0995                     	;# 
  2515  0996                     	;# 
  2516  0997                     	;# 
  2517  0E0F                     	;# 
  2518  0E10                     	;# 
  2519  0E11                     	;# 
  2520  0E12                     	;# 
  2521  0E13                     	;# 
  2522  0E14                     	;# 
  2523  0E15                     	;# 
  2524  0E16                     	;# 
  2525  0E17                     	;# 
  2526  0E18                     	;# 
  2527  0E19                     	;# 
  2528  0E1A                     	;# 
  2529  0E1B                     	;# 
  2530  0E1C                     	;# 
  2531  0E1D                     	;# 
  2532  0E1E                     	;# 
  2533  0E1F                     	;# 
  2534  0E20                     	;# 
  2535  0E21                     	;# 
  2536  0E22                     	;# 
  2537  0E23                     	;# 
  2538  0E24                     	;# 
  2539  0E25                     	;# 
  2540  0E26                     	;# 
  2541  0E27                     	;# 
  2542  0E28                     	;# 
  2543  0E29                     	;# 
  2544  0E2A                     	;# 
  2545  0E2B                     	;# 
  2546  0E2C                     	;# 
  2547  0E2D                     	;# 
  2548  0E2E                     	;# 
  2549  0E2F                     	;# 
  2550  0E30                     	;# 
  2551  0E31                     	;# 
  2552  0E32                     	;# 
  2553  0E33                     	;# 
  2554  0E34                     	;# 
  2555  0E35                     	;# 
  2556  0E36                     	;# 
  2557  0E37                     	;# 
  2558  0E8F                     	;# 
  2559  0E90                     	;# 
  2560  0E91                     	;# 
  2561  0E92                     	;# 
  2562  0E93                     	;# 
  2563  0E94                     	;# 
  2564  0E95                     	;# 
  2565  0E96                     	;# 
  2566  0E97                     	;# 
  2567  0E9C                     	;# 
  2568  0E9D                     	;# 
  2569  0E9E                     	;# 
  2570  0EA1                     	;# 
  2571  0EA2                     	;# 
  2572  0EA3                     	;# 
  2573  0EA4                     	;# 
  2574  0EA5                     	;# 
  2575  0EA9                     	;# 
  2576  0EAA                     	;# 
  2577  0EAB                     	;# 
  2578  0EAC                     	;# 
  2579  0EB1                     	;# 
  2580  0EB2                     	;# 
  2581  0EB3                     	;# 
  2582  0EB8                     	;# 
  2583  0EB9                     	;# 
  2584  0EBA                     	;# 
  2585  0EBB                     	;# 
  2586  0EBC                     	;# 
  2587  0EBD                     	;# 
  2588  0EBE                     	;# 
  2589  0EC3                     	;# 
  2590  0EC5                     	;# 
  2591  0EC6                     	;# 
  2592  0EC7                     	;# 
  2593  0EC8                     	;# 
  2594  0EC9                     	;# 
  2595  0ECA                     	;# 
  2596  0ECB                     	;# 
  2597  0ECC                     	;# 
  2598  0F10                     	;# 
  2599  0F11                     	;# 
  2600  0F12                     	;# 
  2601  0F13                     	;# 
  2602  0F14                     	;# 
  2603  0F15                     	;# 
  2604  0F16                     	;# 
  2605  0F17                     	;# 
  2606  0F18                     	;# 
  2607  0F19                     	;# 
  2608  0F1A                     	;# 
  2609  0F1B                     	;# 
  2610  0F1C                     	;# 
  2611  0F1D                     	;# 
  2612  0F1E                     	;# 
  2613  0F1F                     	;# 
  2614  0F20                     	;# 
  2615  0F21                     	;# 
  2616  0F22                     	;# 
  2617  0F23                     	;# 
  2618  0F24                     	;# 
  2619  0F25                     	;# 
  2620  0F26                     	;# 
  2621  0F27                     	;# 
  2622  0F38                     	;# 
  2623  0F39                     	;# 
  2624  0F3A                     	;# 
  2625  0F3B                     	;# 
  2626  0F3C                     	;# 
  2627  0F3D                     	;# 
  2628  0F3E                     	;# 
  2629  0F3F                     	;# 
  2630  0F40                     	;# 
  2631  0F41                     	;# 
  2632  0F43                     	;# 
  2633  0F44                     	;# 
  2634  0F45                     	;# 
  2635  0F46                     	;# 
  2636  0F47                     	;# 
  2637  0F48                     	;# 
  2638  0F49                     	;# 
  2639  0F4A                     	;# 
  2640  0F4B                     	;# 
  2641  0F4C                     	;# 
  2642  0F4E                     	;# 
  2643  0F4F                     	;# 
  2644  0F50                     	;# 
  2645  0F51                     	;# 
  2646  0F52                     	;# 
  2647  0F53                     	;# 
  2648  0F54                     	;# 
  2649  0F55                     	;# 
  2650  0F56                     	;# 
  2651  0F57                     	;# 
  2652  0F65                     	;# 
  2653  0F68                     	;# 
  2654  0F69                     	;# 
  2655  0F6A                     	;# 
  2656  0F6B                     	;# 
  2657  0FE4                     	;# 
  2658  0FE5                     	;# 
  2659  0FE6                     	;# 
  2660  0FE7                     	;# 
  2661  0FE8                     	;# 
  2662  0FE9                     	;# 
  2663  0FEA                     	;# 
  2664  0FEB                     	;# 
  2665  0FED                     	;# 
  2666  0FEE                     	;# 
  2667  0FEF                     	;# 
  2668  0000                     	;# 
  2669  0001                     	;# 
  2670  0002                     	;# 
  2671  0003                     	;# 
  2672  0004                     	;# 
  2673  0005                     	;# 
  2674  0006                     	;# 
  2675  0007                     	;# 
  2676  0008                     	;# 
  2677  0009                     	;# 
  2678  000A                     	;# 
  2679  000B                     	;# 
  2680  000C                     	;# 
  2681  000D                     	;# 
  2682  000E                     	;# 
  2683  0010                     	;# 
  2684  0011                     	;# 
  2685  0012                     	;# 
  2686  0013                     	;# 
  2687  0016                     	;# 
  2688  0017                     	;# 
  2689  0018                     	;# 
  2690  001C                     	;# 
  2691  001C                     	;# 
  2692  001D                     	;# 
  2693  001D                     	;# 
  2694  001E                     	;# 
  2695  001F                     	;# 
  2696  008C                     	;# 
  2697  008C                     	;# 
  2698  008D                     	;# 
  2699  008E                     	;# 
  2700  008E                     	;# 
  2701  008F                     	;# 
  2702  0090                     	;# 
  2703  0090                     	;# 
  2704  0091                     	;# 
  2705  0093                     	;# 
  2706  0094                     	;# 
  2707  0095                     	;# 
  2708  0096                     	;# 
  2709  0097                     	;# 
  2710  0098                     	;# 
  2711  0099                     	;# 
  2712  009A                     	;# 
  2713  009B                     	;# 
  2714  009C                     	;# 
  2715  009D                     	;# 
  2716  009E                     	;# 
  2717  010C                     	;# 
  2718  010D                     	;# 
  2719  010E                     	;# 
  2720  010E                     	;# 
  2721  010F                     	;# 
  2722  0110                     	;# 
  2723  0110                     	;# 
  2724  0111                     	;# 
  2725  0112                     	;# 
  2726  0112                     	;# 
  2727  0113                     	;# 
  2728  0114                     	;# 
  2729  0114                     	;# 
  2730  0115                     	;# 
  2731  0116                     	;# 
  2732  0116                     	;# 
  2733  0117                     	;# 
  2734  0119                     	;# 
  2735  0119                     	;# 
  2736  0119                     	;# 
  2737  011A                     	;# 
  2738  011A                     	;# 
  2739  011A                     	;# 
  2740  011B                     	;# 
  2741  011B                     	;# 
  2742  011B                     	;# 
  2743  011B                     	;# 
  2744  011B                     	;# 
  2745  011C                     	;# 
  2746  011C                     	;# 
  2747  011C                     	;# 
  2748  011D                     	;# 
  2749  011D                     	;# 
  2750  011D                     	;# 
  2751  011E                     	;# 
  2752  011E                     	;# 
  2753  011E                     	;# 
  2754  011F                     	;# 
  2755  011F                     	;# 
  2756  011F                     	;# 
  2757  011F                     	;# 
  2758  011F                     	;# 
  2759  018C                     	;# 
  2760  018D                     	;# 
  2761  018E                     	;# 
  2762  018F                     	;# 
  2763  0190                     	;# 
  2764  0191                     	;# 
  2765  0192                     	;# 
  2766  0196                     	;# 
  2767  0197                     	;# 
  2768  0198                     	;# 
  2769  0199                     	;# 
  2770  019A                     	;# 
  2771  019B                     	;# 
  2772  019C                     	;# 
  2773  020C                     	;# 
  2774  020C                     	;# 
  2775  020D                     	;# 
  2776  020E                     	;# 
  2777  020F                     	;# 
  2778  020F                     	;# 
  2779  0210                     	;# 
  2780  0210                     	;# 
  2781  0211                     	;# 
  2782  0211                     	;# 
  2783  0212                     	;# 
  2784  0212                     	;# 
  2785  0213                     	;# 
  2786  0214                     	;# 
  2787  0215                     	;# 
  2788  0215                     	;# 
  2789  0216                     	;# 
  2790  0216                     	;# 
  2791  0217                     	;# 
  2792  0217                     	;# 
  2793  0218                     	;# 
  2794  0218                     	;# 
  2795  0219                     	;# 
  2796  021A                     	;# 
  2797  021B                     	;# 
  2798  021B                     	;# 
  2799  021C                     	;# 
  2800  021C                     	;# 
  2801  021D                     	;# 
  2802  021D                     	;# 
  2803  021E                     	;# 
  2804  021F                     	;# 
  2805  028C                     	;# 
  2806  028C                     	;# 
  2807  028D                     	;# 
  2808  028D                     	;# 
  2809  028E                     	;# 
  2810  028F                     	;# 
  2811  0290                     	;# 
  2812  0290                     	;# 
  2813  0291                     	;# 
  2814  0292                     	;# 
  2815  0292                     	;# 
  2816  0293                     	;# 
  2817  0293                     	;# 
  2818  0294                     	;# 
  2819  0295                     	;# 
  2820  0296                     	;# 
  2821  0296                     	;# 
  2822  0297                     	;# 
  2823  0298                     	;# 
  2824  0298                     	;# 
  2825  0299                     	;# 
  2826  0299                     	;# 
  2827  029A                     	;# 
  2828  029B                     	;# 
  2829  029C                     	;# 
  2830  029C                     	;# 
  2831  029D                     	;# 
  2832  030C                     	;# 
  2833  030C                     	;# 
  2834  030D                     	;# 
  2835  030E                     	;# 
  2836  030F                     	;# 
  2837  0310                     	;# 
  2838  0310                     	;# 
  2839  0311                     	;# 
  2840  0312                     	;# 
  2841  0313                     	;# 
  2842  0314                     	;# 
  2843  0314                     	;# 
  2844  0315                     	;# 
  2845  0316                     	;# 
  2846  0317                     	;# 
  2847  0318                     	;# 
  2848  0318                     	;# 
  2849  0319                     	;# 
  2850  031A                     	;# 
  2851  031B                     	;# 
  2852  031C                     	;# 
  2853  031C                     	;# 
  2854  031D                     	;# 
  2855  031E                     	;# 
  2856  031F                     	;# 
  2857  038C                     	;# 
  2858  038C                     	;# 
  2859  038D                     	;# 
  2860  038E                     	;# 
  2861  0390                     	;# 
  2862  0390                     	;# 
  2863  0391                     	;# 
  2864  0392                     	;# 
  2865  040C                     	;# 
  2866  040D                     	;# 
  2867  040E                     	;# 
  2868  040F                     	;# 
  2869  0410                     	;# 
  2870  0411                     	;# 
  2871  0416                     	;# 
  2872  0416                     	;# 
  2873  0417                     	;# 
  2874  0418                     	;# 
  2875  0418                     	;# 
  2876  0419                     	;# 
  2877  041A                     	;# 
  2878  041A                     	;# 
  2879  041B                     	;# 
  2880  041C                     	;# 
  2881  041C                     	;# 
  2882  041D                     	;# 
  2883  041E                     	;# 
  2884  041F                     	;# 
  2885  048C                     	;# 
  2886  048C                     	;# 
  2887  048D                     	;# 
  2888  048E                     	;# 
  2889  048F                     	;# 
  2890  048F                     	;# 
  2891  0490                     	;# 
  2892  0491                     	;# 
  2893  0492                     	;# 
  2894  0492                     	;# 
  2895  0493                     	;# 
  2896  0494                     	;# 
  2897  0495                     	;# 
  2898  0495                     	;# 
  2899  0496                     	;# 
  2900  0497                     	;# 
  2901  0498                     	;# 
  2902  0499                     	;# 
  2903  049A                     	;# 
  2904  049B                     	;# 
  2905  049C                     	;# 
  2906  049D                     	;# 
  2907  050C                     	;# 
  2908  050C                     	;# 
  2909  050D                     	;# 
  2910  050E                     	;# 
  2911  050F                     	;# 
  2912  050F                     	;# 
  2913  0510                     	;# 
  2914  0511                     	;# 
  2915  0512                     	;# 
  2916  0512                     	;# 
  2917  0513                     	;# 
  2918  0514                     	;# 
  2919  0515                     	;# 
  2920  0515                     	;# 
  2921  0516                     	;# 
  2922  0517                     	;# 
  2923  0518                     	;# 
  2924  0519                     	;# 
  2925  051A                     	;# 
  2926  051B                     	;# 
  2927  051C                     	;# 
  2928  051D                     	;# 
  2929  058C                     	;# 
  2930  058C                     	;# 
  2931  058D                     	;# 
  2932  058E                     	;# 
  2933  058F                     	;# 
  2934  058F                     	;# 
  2935  0590                     	;# 
  2936  0591                     	;# 
  2937  0592                     	;# 
  2938  0593                     	;# 
  2939  060C                     	;# 
  2940  060D                     	;# 
  2941  060E                     	;# 
  2942  060F                     	;# 
  2943  0610                     	;# 
  2944  0611                     	;# 
  2945  0612                     	;# 
  2946  0613                     	;# 
  2947  0614                     	;# 
  2948  0616                     	;# 
  2949  0617                     	;# 
  2950  0618                     	;# 
  2951  0619                     	;# 
  2952  061A                     	;# 
  2953  061B                     	;# 
  2954  061C                     	;# 
  2955  061D                     	;# 
  2956  061E                     	;# 
  2957  068C                     	;# 
  2958  068D                     	;# 
  2959  068E                     	;# 
  2960  068F                     	;# 
  2961  0690                     	;# 
  2962  0691                     	;# 
  2963  0692                     	;# 
  2964  0693                     	;# 
  2965  0694                     	;# 
  2966  070C                     	;# 
  2967  070D                     	;# 
  2968  070E                     	;# 
  2969  070F                     	;# 
  2970  0710                     	;# 
  2971  0711                     	;# 
  2972  0712                     	;# 
  2973  0713                     	;# 
  2974  0714                     	;# 
  2975  0716                     	;# 
  2976  0717                     	;# 
  2977  0718                     	;# 
  2978  0719                     	;# 
  2979  071A                     	;# 
  2980  071B                     	;# 
  2981  071C                     	;# 
  2982  071D                     	;# 
  2983  071E                     	;# 
  2984  0796                     	;# 
  2985  0797                     	;# 
  2986  0798                     	;# 
  2987  0799                     	;# 
  2988  079A                     	;# 
  2989  079B                     	;# 
  2990  080C                     	;# 
  2991  080D                     	;# 
  2992  080E                     	;# 
  2993  080F                     	;# 
  2994  0810                     	;# 
  2995  0811                     	;# 
  2996  0812                     	;# 
  2997  0813                     	;# 
  2998  0814                     	;# 
  2999  081A                     	;# 
  3000  081B                     	;# 
  3001  081C                     	;# 
  3002  081D                     	;# 
  3003  081E                     	;# 
  3004  081F                     	;# 
  3005  088C                     	;# 
  3006  088D                     	;# 
  3007  088E                     	;# 
  3008  088F                     	;# 
  3009  0890                     	;# 
  3010  0891                     	;# 
  3011  0892                     	;# 
  3012  0893                     	;# 
  3013  0895                     	;# 
  3014  0896                     	;# 
  3015  0897                     	;# 
  3016  0898                     	;# 
  3017  0899                     	;# 
  3018  089A                     	;# 
  3019  089B                     	;# 
  3020  090C                     	;# 
  3021  090E                     	;# 
  3022  090F                     	;# 
  3023  091F                     	;# 
  3024  091F                     	;# 
  3025  098F                     	;# 
  3026  098F                     	;# 
  3027  0990                     	;# 
  3028  0991                     	;# 
  3029  0992                     	;# 
  3030  0993                     	;# 
  3031  0994                     	;# 
  3032  0995                     	;# 
  3033  0996                     	;# 
  3034  0997                     	;# 
  3035  0E0F                     	;# 
  3036  0E10                     	;# 
  3037  0E11                     	;# 
  3038  0E12                     	;# 
  3039  0E13                     	;# 
  3040  0E14                     	;# 
  3041  0E15                     	;# 
  3042  0E16                     	;# 
  3043  0E17                     	;# 
  3044  0E18                     	;# 
  3045  0E19                     	;# 
  3046  0E1A                     	;# 
  3047  0E1B                     	;# 
  3048  0E1C                     	;# 
  3049  0E1D                     	;# 
  3050  0E1E                     	;# 
  3051  0E1F                     	;# 
  3052  0E20                     	;# 
  3053  0E21                     	;# 
  3054  0E22                     	;# 
  3055  0E23                     	;# 
  3056  0E24                     	;# 
  3057  0E25                     	;# 
  3058  0E26                     	;# 
  3059  0E27                     	;# 
  3060  0E28                     	;# 
  3061  0E29                     	;# 
  3062  0E2A                     	;# 
  3063  0E2B                     	;# 
  3064  0E2C                     	;# 
  3065  0E2D                     	;# 
  3066  0E2E                     	;# 
  3067  0E2F                     	;# 
  3068  0E30                     	;# 
  3069  0E31                     	;# 
  3070  0E32                     	;# 
  3071  0E33                     	;# 
  3072  0E34                     	;# 
  3073  0E35                     	;# 
  3074  0E36                     	;# 
  3075  0E37                     	;# 
  3076  0E8F                     	;# 
  3077  0E90                     	;# 
  3078  0E91                     	;# 
  3079  0E92                     	;# 
  3080  0E93                     	;# 
  3081  0E94                     	;# 
  3082  0E95                     	;# 
  3083  0E96                     	;# 
  3084  0E97                     	;# 
  3085  0E9C                     	;# 
  3086  0E9D                     	;# 
  3087  0E9E                     	;# 
  3088  0EA1                     	;# 
  3089  0EA2                     	;# 
  3090  0EA3                     	;# 
  3091  0EA4                     	;# 
  3092  0EA5                     	;# 
  3093  0EA9                     	;# 
  3094  0EAA                     	;# 
  3095  0EAB                     	;# 
  3096  0EAC                     	;# 
  3097  0EB1                     	;# 
  3098  0EB2                     	;# 
  3099  0EB3                     	;# 
  3100  0EB8                     	;# 
  3101  0EB9                     	;# 
  3102  0EBA                     	;# 
  3103  0EBB                     	;# 
  3104  0EBC                     	;# 
  3105  0EBD                     	;# 
  3106  0EBE                     	;# 
  3107  0EC3                     	;# 
  3108  0EC5                     	;# 
  3109  0EC6                     	;# 
  3110  0EC7                     	;# 
  3111  0EC8                     	;# 
  3112  0EC9                     	;# 
  3113  0ECA                     	;# 
  3114  0ECB                     	;# 
  3115  0ECC                     	;# 
  3116  0F10                     	;# 
  3117  0F11                     	;# 
  3118  0F12                     	;# 
  3119  0F13                     	;# 
  3120  0F14                     	;# 
  3121  0F15                     	;# 
  3122  0F16                     	;# 
  3123  0F17                     	;# 
  3124  0F18                     	;# 
  3125  0F19                     	;# 
  3126  0F1A                     	;# 
  3127  0F1B                     	;# 
  3128  0F1C                     	;# 
  3129  0F1D                     	;# 
  3130  0F1E                     	;# 
  3131  0F1F                     	;# 
  3132  0F20                     	;# 
  3133  0F21                     	;# 
  3134  0F22                     	;# 
  3135  0F23                     	;# 
  3136  0F24                     	;# 
  3137  0F25                     	;# 
  3138  0F26                     	;# 
  3139  0F27                     	;# 
  3140  0F38                     	;# 
  3141  0F39                     	;# 
  3142  0F3A                     	;# 
  3143  0F3B                     	;# 
  3144  0F3C                     	;# 
  3145  0F3D                     	;# 
  3146  0F3E                     	;# 
  3147  0F3F                     	;# 
  3148  0F40                     	;# 
  3149  0F41                     	;# 
  3150  0F43                     	;# 
  3151  0F44                     	;# 
  3152  0F45                     	;# 
  3153  0F46                     	;# 
  3154  0F47                     	;# 
  3155  0F48                     	;# 
  3156  0F49                     	;# 
  3157  0F4A                     	;# 
  3158  0F4B                     	;# 
  3159  0F4C                     	;# 
  3160  0F4E                     	;# 
  3161  0F4F                     	;# 
  3162  0F50                     	;# 
  3163  0F51                     	;# 
  3164  0F52                     	;# 
  3165  0F53                     	;# 
  3166  0F54                     	;# 
  3167  0F55                     	;# 
  3168  0F56                     	;# 
  3169  0F57                     	;# 
  3170  0F65                     	;# 
  3171  0F68                     	;# 
  3172  0F69                     	;# 
  3173  0F6A                     	;# 
  3174  0F6B                     	;# 
  3175  0FE4                     	;# 
  3176  0FE5                     	;# 
  3177  0FE6                     	;# 
  3178  0FE7                     	;# 
  3179  0FE8                     	;# 
  3180  0FE9                     	;# 
  3181  0FEA                     	;# 
  3182  0FEB                     	;# 
  3183  0FED                     	;# 
  3184  0FEE                     	;# 
  3185  0FEF                     	;# 
  3186  0000                     	;# 
  3187  0001                     	;# 
  3188  0002                     	;# 
  3189  0003                     	;# 
  3190  0004                     	;# 
  3191  0005                     	;# 
  3192  0006                     	;# 
  3193  0007                     	;# 
  3194  0008                     	;# 
  3195  0009                     	;# 
  3196  000A                     	;# 
  3197  000B                     	;# 
  3198  000C                     	;# 
  3199  000D                     	;# 
  3200  000E                     	;# 
  3201  0010                     	;# 
  3202  0011                     	;# 
  3203  0012                     	;# 
  3204  0013                     	;# 
  3205  0016                     	;# 
  3206  0017                     	;# 
  3207  0018                     	;# 
  3208  001C                     	;# 
  3209  001C                     	;# 
  3210  001D                     	;# 
  3211  001D                     	;# 
  3212  001E                     	;# 
  3213  001F                     	;# 
  3214  008C                     	;# 
  3215  008C                     	;# 
  3216  008D                     	;# 
  3217  008E                     	;# 
  3218  008E                     	;# 
  3219  008F                     	;# 
  3220  0090                     	;# 
  3221  0090                     	;# 
  3222  0091                     	;# 
  3223  0093                     	;# 
  3224  0094                     	;# 
  3225  0095                     	;# 
  3226  0096                     	;# 
  3227  0097                     	;# 
  3228  0098                     	;# 
  3229  0099                     	;# 
  3230  009A                     	;# 
  3231  009B                     	;# 
  3232  009C                     	;# 
  3233  009D                     	;# 
  3234  009E                     	;# 
  3235  010C                     	;# 
  3236  010D                     	;# 
  3237  010E                     	;# 
  3238  010E                     	;# 
  3239  010F                     	;# 
  3240  0110                     	;# 
  3241  0110                     	;# 
  3242  0111                     	;# 
  3243  0112                     	;# 
  3244  0112                     	;# 
  3245  0113                     	;# 
  3246  0114                     	;# 
  3247  0114                     	;# 
  3248  0115                     	;# 
  3249  0116                     	;# 
  3250  0116                     	;# 
  3251  0117                     	;# 
  3252  0119                     	;# 
  3253  0119                     	;# 
  3254  0119                     	;# 
  3255  011A                     	;# 
  3256  011A                     	;# 
  3257  011A                     	;# 
  3258  011B                     	;# 
  3259  011B                     	;# 
  3260  011B                     	;# 
  3261  011B                     	;# 
  3262  011B                     	;# 
  3263  011C                     	;# 
  3264  011C                     	;# 
  3265  011C                     	;# 
  3266  011D                     	;# 
  3267  011D                     	;# 
  3268  011D                     	;# 
  3269  011E                     	;# 
  3270  011E                     	;# 
  3271  011E                     	;# 
  3272  011F                     	;# 
  3273  011F                     	;# 
  3274  011F                     	;# 
  3275  011F                     	;# 
  3276  011F                     	;# 
  3277  018C                     	;# 
  3278  018D                     	;# 
  3279  018E                     	;# 
  3280  018F                     	;# 
  3281  0190                     	;# 
  3282  0191                     	;# 
  3283  0192                     	;# 
  3284  0196                     	;# 
  3285  0197                     	;# 
  3286  0198                     	;# 
  3287  0199                     	;# 
  3288  019A                     	;# 
  3289  019B                     	;# 
  3290  019C                     	;# 
  3291  020C                     	;# 
  3292  020C                     	;# 
  3293  020D                     	;# 
  3294  020E                     	;# 
  3295  020F                     	;# 
  3296  020F                     	;# 
  3297  0210                     	;# 
  3298  0210                     	;# 
  3299  0211                     	;# 
  3300  0211                     	;# 
  3301  0212                     	;# 
  3302  0212                     	;# 
  3303  0213                     	;# 
  3304  0214                     	;# 
  3305  0215                     	;# 
  3306  0215                     	;# 
  3307  0216                     	;# 
  3308  0216                     	;# 
  3309  0217                     	;# 
  3310  0217                     	;# 
  3311  0218                     	;# 
  3312  0218                     	;# 
  3313  0219                     	;# 
  3314  021A                     	;# 
  3315  021B                     	;# 
  3316  021B                     	;# 
  3317  021C                     	;# 
  3318  021C                     	;# 
  3319  021D                     	;# 
  3320  021D                     	;# 
  3321  021E                     	;# 
  3322  021F                     	;# 
  3323  028C                     	;# 
  3324  028C                     	;# 
  3325  028D                     	;# 
  3326  028D                     	;# 
  3327  028E                     	;# 
  3328  028F                     	;# 
  3329  0290                     	;# 
  3330  0290                     	;# 
  3331  0291                     	;# 
  3332  0292                     	;# 
  3333  0292                     	;# 
  3334  0293                     	;# 
  3335  0293                     	;# 
  3336  0294                     	;# 
  3337  0295                     	;# 
  3338  0296                     	;# 
  3339  0296                     	;# 
  3340  0297                     	;# 
  3341  0298                     	;# 
  3342  0298                     	;# 
  3343  0299                     	;# 
  3344  0299                     	;# 
  3345  029A                     	;# 
  3346  029B                     	;# 
  3347  029C                     	;# 
  3348  029C                     	;# 
  3349  029D                     	;# 
  3350  030C                     	;# 
  3351  030C                     	;# 
  3352  030D                     	;# 
  3353  030E                     	;# 
  3354  030F                     	;# 
  3355  0310                     	;# 
  3356  0310                     	;# 
  3357  0311                     	;# 
  3358  0312                     	;# 
  3359  0313                     	;# 
  3360  0314                     	;# 
  3361  0314                     	;# 
  3362  0315                     	;# 
  3363  0316                     	;# 
  3364  0317                     	;# 
  3365  0318                     	;# 
  3366  0318                     	;# 
  3367  0319                     	;# 
  3368  031A                     	;# 
  3369  031B                     	;# 
  3370  031C                     	;# 
  3371  031C                     	;# 
  3372  031D                     	;# 
  3373  031E                     	;# 
  3374  031F                     	;# 
  3375  038C                     	;# 
  3376  038C                     	;# 
  3377  038D                     	;# 
  3378  038E                     	;# 
  3379  0390                     	;# 
  3380  0390                     	;# 
  3381  0391                     	;# 
  3382  0392                     	;# 
  3383  040C                     	;# 
  3384  040D                     	;# 
  3385  040E                     	;# 
  3386  040F                     	;# 
  3387  0410                     	;# 
  3388  0411                     	;# 
  3389  0416                     	;# 
  3390  0416                     	;# 
  3391  0417                     	;# 
  3392  0418                     	;# 
  3393  0418                     	;# 
  3394  0419                     	;# 
  3395  041A                     	;# 
  3396  041A                     	;# 
  3397  041B                     	;# 
  3398  041C                     	;# 
  3399  041C                     	;# 
  3400  041D                     	;# 
  3401  041E                     	;# 
  3402  041F                     	;# 
  3403  048C                     	;# 
  3404  048C                     	;# 
  3405  048D                     	;# 
  3406  048E                     	;# 
  3407  048F                     	;# 
  3408  048F                     	;# 
  3409  0490                     	;# 
  3410  0491                     	;# 
  3411  0492                     	;# 
  3412  0492                     	;# 
  3413  0493                     	;# 
  3414  0494                     	;# 
  3415  0495                     	;# 
  3416  0495                     	;# 
  3417  0496                     	;# 
  3418  0497                     	;# 
  3419  0498                     	;# 
  3420  0499                     	;# 
  3421  049A                     	;# 
  3422  049B                     	;# 
  3423  049C                     	;# 
  3424  049D                     	;# 
  3425  050C                     	;# 
  3426  050C                     	;# 
  3427  050D                     	;# 
  3428  050E                     	;# 
  3429  050F                     	;# 
  3430  050F                     	;# 
  3431  0510                     	;# 
  3432  0511                     	;# 
  3433  0512                     	;# 
  3434  0512                     	;# 
  3435  0513                     	;# 
  3436  0514                     	;# 
  3437  0515                     	;# 
  3438  0515                     	;# 
  3439  0516                     	;# 
  3440  0517                     	;# 
  3441  0518                     	;# 
  3442  0519                     	;# 
  3443  051A                     	;# 
  3444  051B                     	;# 
  3445  051C                     	;# 
  3446  051D                     	;# 
  3447  058C                     	;# 
  3448  058C                     	;# 
  3449  058D                     	;# 
  3450  058E                     	;# 
  3451  058F                     	;# 
  3452  058F                     	;# 
  3453  0590                     	;# 
  3454  0591                     	;# 
  3455  0592                     	;# 
  3456  0593                     	;# 
  3457  060C                     	;# 
  3458  060D                     	;# 
  3459  060E                     	;# 
  3460  060F                     	;# 
  3461  0610                     	;# 
  3462  0611                     	;# 
  3463  0612                     	;# 
  3464  0613                     	;# 
  3465  0614                     	;# 
  3466  0616                     	;# 
  3467  0617                     	;# 
  3468  0618                     	;# 
  3469  0619                     	;# 
  3470  061A                     	;# 
  3471  061B                     	;# 
  3472  061C                     	;# 
  3473  061D                     	;# 
  3474  061E                     	;# 
  3475  068C                     	;# 
  3476  068D                     	;# 
  3477  068E                     	;# 
  3478  068F                     	;# 
  3479  0690                     	;# 
  3480  0691                     	;# 
  3481  0692                     	;# 
  3482  0693                     	;# 
  3483  0694                     	;# 
  3484  070C                     	;# 
  3485  070D                     	;# 
  3486  070E                     	;# 
  3487  070F                     	;# 
  3488  0710                     	;# 
  3489  0711                     	;# 
  3490  0712                     	;# 
  3491  0713                     	;# 
  3492  0714                     	;# 
  3493  0716                     	;# 
  3494  0717                     	;# 
  3495  0718                     	;# 
  3496  0719                     	;# 
  3497  071A                     	;# 
  3498  071B                     	;# 
  3499  071C                     	;# 
  3500  071D                     	;# 
  3501  071E                     	;# 
  3502  0796                     	;# 
  3503  0797                     	;# 
  3504  0798                     	;# 
  3505  0799                     	;# 
  3506  079A                     	;# 
  3507  079B                     	;# 
  3508  080C                     	;# 
  3509  080D                     	;# 
  3510  080E                     	;# 
  3511  080F                     	;# 
  3512  0810                     	;# 
  3513  0811                     	;# 
  3514  0812                     	;# 
  3515  0813                     	;# 
  3516  0814                     	;# 
  3517  081A                     	;# 
  3518  081B                     	;# 
  3519  081C                     	;# 
  3520  081D                     	;# 
  3521  081E                     	;# 
  3522  081F                     	;# 
  3523  088C                     	;# 
  3524  088D                     	;# 
  3525  088E                     	;# 
  3526  088F                     	;# 
  3527  0890                     	;# 
  3528  0891                     	;# 
  3529  0892                     	;# 
  3530  0893                     	;# 
  3531  0895                     	;# 
  3532  0896                     	;# 
  3533  0897                     	;# 
  3534  0898                     	;# 
  3535  0899                     	;# 
  3536  089A                     	;# 
  3537  089B                     	;# 
  3538  090C                     	;# 
  3539  090E                     	;# 
  3540  090F                     	;# 
  3541  091F                     	;# 
  3542  091F                     	;# 
  3543  098F                     	;# 
  3544  098F                     	;# 
  3545  0990                     	;# 
  3546  0991                     	;# 
  3547  0992                     	;# 
  3548  0993                     	;# 
  3549  0994                     	;# 
  3550  0995                     	;# 
  3551  0996                     	;# 
  3552  0997                     	;# 
  3553  0E0F                     	;# 
  3554  0E10                     	;# 
  3555  0E11                     	;# 
  3556  0E12                     	;# 
  3557  0E13                     	;# 
  3558  0E14                     	;# 
  3559  0E15                     	;# 
  3560  0E16                     	;# 
  3561  0E17                     	;# 
  3562  0E18                     	;# 
  3563  0E19                     	;# 
  3564  0E1A                     	;# 
  3565  0E1B                     	;# 
  3566  0E1C                     	;# 
  3567  0E1D                     	;# 
  3568  0E1E                     	;# 
  3569  0E1F                     	;# 
  3570  0E20                     	;# 
  3571  0E21                     	;# 
  3572  0E22                     	;# 
  3573  0E23                     	;# 
  3574  0E24                     	;# 
  3575  0E25                     	;# 
  3576  0E26                     	;# 
  3577  0E27                     	;# 
  3578  0E28                     	;# 
  3579  0E29                     	;# 
  3580  0E2A                     	;# 
  3581  0E2B                     	;# 
  3582  0E2C                     	;# 
  3583  0E2D                     	;# 
  3584  0E2E                     	;# 
  3585  0E2F                     	;# 
  3586  0E30                     	;# 
  3587  0E31                     	;# 
  3588  0E32                     	;# 
  3589  0E33                     	;# 
  3590  0E34                     	;# 
  3591  0E35                     	;# 
  3592  0E36                     	;# 
  3593  0E37                     	;# 
  3594  0E8F                     	;# 
  3595  0E90                     	;# 
  3596  0E91                     	;# 
  3597  0E92                     	;# 
  3598  0E93                     	;# 
  3599  0E94                     	;# 
  3600  0E95                     	;# 
  3601  0E96                     	;# 
  3602  0E97                     	;# 
  3603  0E9C                     	;# 
  3604  0E9D                     	;# 
  3605  0E9E                     	;# 
  3606  0EA1                     	;# 
  3607  0EA2                     	;# 
  3608  0EA3                     	;# 
  3609  0EA4                     	;# 
  3610  0EA5                     	;# 
  3611  0EA9                     	;# 
  3612  0EAA                     	;# 
  3613  0EAB                     	;# 
  3614  0EAC                     	;# 
  3615  0EB1                     	;# 
  3616  0EB2                     	;# 
  3617  0EB3                     	;# 
  3618  0EB8                     	;# 
  3619  0EB9                     	;# 
  3620  0EBA                     	;# 
  3621  0EBB                     	;# 
  3622  0EBC                     	;# 
  3623  0EBD                     	;# 
  3624  0EBE                     	;# 
  3625  0EC3                     	;# 
  3626  0EC5                     	;# 
  3627  0EC6                     	;# 
  3628  0EC7                     	;# 
  3629  0EC8                     	;# 
  3630  0EC9                     	;# 
  3631  0ECA                     	;# 
  3632  0ECB                     	;# 
  3633  0ECC                     	;# 
  3634  0F10                     	;# 
  3635  0F11                     	;# 
  3636  0F12                     	;# 
  3637  0F13                     	;# 
  3638  0F14                     	;# 
  3639  0F15                     	;# 
  3640  0F16                     	;# 
  3641  0F17                     	;# 
  3642  0F18                     	;# 
  3643  0F19                     	;# 
  3644  0F1A                     	;# 
  3645  0F1B                     	;# 
  3646  0F1C                     	;# 
  3647  0F1D                     	;# 
  3648  0F1E                     	;# 
  3649  0F1F                     	;# 
  3650  0F20                     	;# 
  3651  0F21                     	;# 
  3652  0F22                     	;# 
  3653  0F23                     	;# 
  3654  0F24                     	;# 
  3655  0F25                     	;# 
  3656  0F26                     	;# 
  3657  0F27                     	;# 
  3658  0F38                     	;# 
  3659  0F39                     	;# 
  3660  0F3A                     	;# 
  3661  0F3B                     	;# 
  3662  0F3C                     	;# 
  3663  0F3D                     	;# 
  3664  0F3E                     	;# 
  3665  0F3F                     	;# 
  3666  0F40                     	;# 
  3667  0F41                     	;# 
  3668  0F43                     	;# 
  3669  0F44                     	;# 
  3670  0F45                     	;# 
  3671  0F46                     	;# 
  3672  0F47                     	;# 
  3673  0F48                     	;# 
  3674  0F49                     	;# 
  3675  0F4A                     	;# 
  3676  0F4B                     	;# 
  3677  0F4C                     	;# 
  3678  0F4E                     	;# 
  3679  0F4F                     	;# 
  3680  0F50                     	;# 
  3681  0F51                     	;# 
  3682  0F52                     	;# 
  3683  0F53                     	;# 
  3684  0F54                     	;# 
  3685  0F55                     	;# 
  3686  0F56                     	;# 
  3687  0F57                     	;# 
  3688  0F65                     	;# 
  3689  0F68                     	;# 
  3690  0F69                     	;# 
  3691  0F6A                     	;# 
  3692  0F6B                     	;# 
  3693  0FE4                     	;# 
  3694  0FE5                     	;# 
  3695  0FE6                     	;# 
  3696  0FE7                     	;# 
  3697  0FE8                     	;# 
  3698  0FE9                     	;# 
  3699  0FEA                     	;# 
  3700  0FEB                     	;# 
  3701  0FED                     	;# 
  3702  0FEE                     	;# 
  3703  0FEF                     	;# 
  3704                           
  3705                           	psect	nvBANK0
  3706  005B                     __pnvBANK0:
  3707  005B                     _EUSART_ErrorHandler:
  3708  005B                     	ds	2
  3709  005D                     _EUSART_OverrunErrorHandler:
  3710  005D                     	ds	2
  3711  005F                     _EUSART_FramingErrorHandler:
  3712  005F                     	ds	2
  3713  0061                     _EUSART_RxDefaultInterruptHandler:
  3714  0061                     	ds	2
  3715  0063                     _EUSART_TxDefaultInterruptHandler:
  3716  0063                     	ds	2
  3717  0065                     _eusartTxBufferRemaining:
  3718  0065                     	ds	1
  3719  000B                     _INTCONbits	set	11
  3720  0013                     _TRISC	set	19
  3721  0012                     _TRISB	set	18
  3722  0011                     _TRISA	set	17
  3723  0018                     _LATC	set	24
  3724  0017                     _LATB	set	23
  3725  0016                     _LATA	set	22
  3726  0016                     _LATAbits	set	22
  3727  0094                     _ADCON1bits	set	148
  3728  008E                     _ADPREVL	set	142
  3729  008F                     _ADPREVH	set	143
  3730  0097                     _ADSTATbits	set	151
  3731  0090                     _ADACCL	set	144
  3732  0091                     _ADACCH	set	145
  3733  0095                     _ADCON2bits	set	149
  3734  0096                     _ADCON3bits	set	150
  3735  008C                     _ADRESL	set	140
  3736  008D                     _ADRESH	set	141
  3737  0093                     _ADCON0bits	set	147
  3738  009D                     _ADACQ	set	157
  3739  0093                     _ADCON0	set	147
  3740  0098                     _ADCLK	set	152
  3741  0099                     _ADACT	set	153
  3742  009A                     _ADREF	set	154
  3743  0097                     _ADSTAT	set	151
  3744  0096                     _ADCON3	set	150
  3745  0095                     _ADCON2	set	149
  3746  0094                     _ADCON1	set	148
  3747  009C                     _ADPRE	set	156
  3748  009B                     _ADCAP	set	155
  3749  009E                     _ADPCH	set	158
  3750  0119                     _RC1REG	set	281
  3751  011D                     _RC1STAbits	set	285
  3752  011A                     _TX1REG	set	282
  3753  011E                     _TX1STAbits	set	286
  3754  011C                     _SP1BRGH	set	284
  3755  011B                     _SP1BRGL	set	283
  3756  011E                     _TX1STA	set	286
  3757  011D                     _RC1STA	set	285
  3758  011F                     _BAUD1CON	set	287
  3759  0116                     _ADERRL	set	278
  3760  0117                     _ADERRH	set	279
  3761  0114                     _ADFLTRL	set	276
  3762  0115                     _ADFLTRH	set	277
  3763  010C                     _ADCNT	set	268
  3764  010D                     _ADRPT	set	269
  3765  0113                     _ADSTPTH	set	275
  3766  0112                     _ADSTPTL	set	274
  3767  0111                     _ADUTHH	set	273
  3768  0110                     _ADUTHL	set	272
  3769  010F                     _ADLTHH	set	271
  3770  010E                     _ADLTHL	set	270
  3771  070F                     _PIR3bits	set	1807
  3772  0719                     _PIE3bits	set	1817
  3773  079B                     _PMD5	set	1947
  3774  079A                     _PMD4	set	1946
  3775  0799                     _PMD3	set	1945
  3776  0798                     _PMD2	set	1944
  3777  0797                     _PMD1	set	1943
  3778  0796                     _PMD0	set	1942
  3779  0892                     _OSCTUNE	set	2194
  3780  0893                     _OSCFRQ	set	2195
  3781  0891                     _OSCEN	set	2193
  3782  088F                     _OSCCON3	set	2191
  3783  088D                     _OSCCON1	set	2189
  3784  0ECB                     _RXPPS	set	3787
  3785  0F20                     _RC0PPS	set	3872
  3786  0F68                     _INLVLE	set	3944
  3787  0F52                     _INLVLC	set	3922
  3788  0F47                     _INLVLB	set	3911
  3789  0F3C                     _INLVLA	set	3900
  3790  0F51                     _SLRCONC	set	3921
  3791  0F46                     _SLRCONB	set	3910
  3792  0F3B                     _SLRCONA	set	3899
  3793  0F50                     _ODCONC	set	3920
  3794  0F45                     _ODCONB	set	3909
  3795  0F3A                     _ODCONA	set	3898
  3796  0F4F                     _WPUC	set	3919
  3797  0F39                     _WPUA	set	3897
  3798  0F44                     _WPUB	set	3908
  3799  0F65                     _WPUE	set	3941
  3800  0F38                     _ANSELA	set	3896
  3801  0F43                     _ANSELB	set	3907
  3802  0F4E                     _ANSELC	set	3918
  3803                           
  3804                           	psect	stringtext1
  3805  02B0                     __pstringtext1:
  3806  02B0                     STR_1:
  3807  02B0  3448               	retlw	72	;'H'
  3808  02B1  344F               	retlw	79	;'O'
  3809  02B2  344C               	retlw	76	;'L'
  3810  02B3  3441               	retlw	65	;'A'
  3811  02B4  3420               	retlw	32	;' '
  3812  02B5  3470               	retlw	112	;'p'
  3813  02B6  3469               	retlw	105	;'i'
  3814  02B7  3463               	retlw	99	;'c'
  3815  02B8  340A               	retlw	10
  3816  02B9  340D               	retlw	13
  3817  02BA  3400               	retlw	0
  3818                           
  3819                           	psect	stringtext2
  3820  0000                     __pstringtext2:
  3821                           
  3822                           	psect	cinit
  3823  002D                     start_initialization:	
  3824                           ; #config settings
  3825                           
  3826  002D                     __initialization:
  3827                           
  3828                           ; Clear objects allocated to COMMON
  3829  002D  01FC               	clrf	__pbssCOMMON& (0+127)
  3830                           
  3831                           ; Clear objects allocated to BANK0
  3832  002E  3020               	movlw	low __pbssBANK0
  3833  002F  0084               	movwf	4
  3834  0030  3000               	movlw	high __pbssBANK0
  3835  0031  0085               	movwf	5
  3836  0032  3025               	movlw	37
  3837  0033  3182  22CC  3180   	fcall	clear_ram0
  3838                           
  3839                           ; Clear objects allocated to BANK1
  3840  0036  30A0               	movlw	low __pbssBANK1
  3841  0037  0084               	movwf	4
  3842  0038  3000               	movlw	high __pbssBANK1
  3843  0039  0085               	movwf	5
  3844  003A  3020               	movlw	32
  3845  003B  3182  22CC  3180   	fcall	clear_ram0
  3846  003E                     end_of_initialization:	
  3847                           ;End of C runtime variable initialization code
  3848                           
  3849  003E                     __end_of__initialization:
  3850  003E  107E               	bcf	int$flags,0	;clear compiler interrupt flag (level 1)
  3851  003F  0020               	movlb	0
  3852  0040  3180  28BE         	ljmp	_main	;jump to C main() function
  3853                           
  3854                           	psect	bssCOMMON
  3855  007C                     __pbssCOMMON:
  3856  007C                     _eusartRxHead:
  3857  007C                     	ds	1
  3858                           
  3859                           	psect	bssBANK0
  3860  0020                     __pbssBANK0:
  3861  0020                     _eusartRxStatusBuffer:
  3862  0020                     	ds	8
  3863  0028                     _eusartRxBuffer:
  3864  0028                     	ds	8
  3865  0030                     _eusartTxBuffer:
  3866  0030                     	ds	8
  3867  0038                     _nout:
  3868  0038                     	ds	2
  3869  003A                     _width:
  3870  003A                     	ds	2
  3871  003C                     _prec:
  3872  003C                     	ds	2
  3873  003E                     _flags:
  3874  003E                     	ds	2
  3875  0040                     _eusartRxLastError:
  3876  0040                     	ds	1
  3877  0041                     _eusartRxCount:
  3878  0041                     	ds	1
  3879  0042                     _eusartRxTail:
  3880  0042                     	ds	1
  3881  0043                     _eusartTxTail:
  3882  0043                     	ds	1
  3883  0044                     _eusartTxHead:
  3884  0044                     	ds	1
  3885                           
  3886                           	psect	bssBANK1
  3887  00A0                     __pbssBANK1:
  3888  00A0                     _dbuf:
  3889  00A0                     	ds	32
  3890                           
  3891                           	psect	clrtext
  3892  02CC                     clear_ram0:	
  3893                           ;	Called with FSR0 containing the base address, and
  3894                           ;	WREG with the size to clear
  3895                           
  3896  02CC  0064               	clrwdt	;clear the watchdog before getting into this loop
  3897  02CD                     clrloop0:
  3898  02CD  0180               	clrf	0	;clear RAM location pointed to by FSR
  3899  02CE  3101               	addfsr 0,1
  3900  02CF  0B89               	decfsz	9,f	;Have we reached the end of clearing yet?
  3901  02D0  2ACD               	goto	clrloop0	;have we reached the end yet?
  3902  02D1  3400               	retlw	0	;all done for this memory range, return
  3903                           
  3904                           	psect	cstackCOMMON
  3905  0070                     __pcstackCOMMON:
  3906  0070                     ?_SYSTEM_Initialize:
  3907  0070                     ?_PMD_Initialize:	
  3908                           ; 1 bytes @ 0x0
  3909                           
  3910  0070                     ?_OSCILLATOR_Initialize:	
  3911                           ; 1 bytes @ 0x0
  3912                           
  3913  0070                     ?_ADCC_Initialize:	
  3914                           ; 1 bytes @ 0x0
  3915                           
  3916  0070                     ?_EUSART_Initialize:	
  3917                           ; 1 bytes @ 0x0
  3918                           
  3919  0070                     ?_EUSART_Receive_ISR:	
  3920                           ; 1 bytes @ 0x0
  3921                           
  3922  0070                     ?_EUSART_Transmit_ISR:	
  3923                           ; 1 bytes @ 0x0
  3924                           
  3925  0070                     ??_EUSART_Transmit_ISR:	
  3926                           ; 1 bytes @ 0x0
  3927                           
  3928  0070                     ?_EUSART_DefaultFramingErrorHandler:	
  3929                           ; 1 bytes @ 0x0
  3930                           
  3931  0070                     ??_EUSART_DefaultFramingErrorHandler:	
  3932                           ; 1 bytes @ 0x0
  3933                           
  3934  0070                     ?_EUSART_DefaultOverrunErrorHandler:	
  3935                           ; 1 bytes @ 0x0
  3936                           
  3937  0070                     ??_EUSART_DefaultOverrunErrorHandler:	
  3938                           ; 1 bytes @ 0x0
  3939                           
  3940  0070                     ?_EUSART_DefaultErrorHandler:	
  3941                           ; 1 bytes @ 0x0
  3942                           
  3943  0070                     ?_EUSART_RxDataHandler:	
  3944                           ; 1 bytes @ 0x0
  3945                           
  3946  0070                     ??_EUSART_RxDataHandler:	
  3947                           ; 1 bytes @ 0x0
  3948                           
  3949  0070                     ?_main:	
  3950                           ; 1 bytes @ 0x0
  3951                           
  3952  0070                     ?_PIN_MANAGER_Initialize:	
  3953                           ; 1 bytes @ 0x0
  3954                           
  3955  0070                     ?_EUSART_Write:	
  3956                           ; 1 bytes @ 0x0
  3957                           
  3958  0070                     ?_putch:	
  3959                           ; 1 bytes @ 0x0
  3960                           
  3961  0070                     ?_INTERRUPT_InterruptManager:	
  3962                           ; 1 bytes @ 0x0
  3963                           
  3964                           
  3965                           ; 1 bytes @ 0x0
  3966  0070                     	ds	1
  3967  0071                     ??_PMD_Initialize:
  3968  0071                     ??_OSCILLATOR_Initialize:	
  3969                           ; 1 bytes @ 0x1
  3970                           
  3971  0071                     ??_ADCC_Initialize:	
  3972                           ; 1 bytes @ 0x1
  3973                           
  3974  0071                     ?_EUSART_SetRxInterruptHandler:	
  3975                           ; 1 bytes @ 0x1
  3976                           
  3977  0071                     ??_EUSART_Receive_ISR:	
  3978                           ; 1 bytes @ 0x1
  3979                           
  3980  0071                     ?_EUSART_SetTxInterruptHandler:	
  3981                           ; 1 bytes @ 0x1
  3982                           
  3983  0071                     ?_EUSART_SetFramingErrorHandler:	
  3984                           ; 1 bytes @ 0x1
  3985                           
  3986  0071                     ?_EUSART_SetOverrunErrorHandler:	
  3987                           ; 1 bytes @ 0x1
  3988                           
  3989  0071                     ?_EUSART_SetErrorHandler:	
  3990                           ; 1 bytes @ 0x1
  3991                           
  3992  0071                     ??_EUSART_DefaultErrorHandler:	
  3993                           ; 1 bytes @ 0x1
  3994                           
  3995  0071                     ??_PIN_MANAGER_Initialize:	
  3996                           ; 1 bytes @ 0x1
  3997                           
  3998  0071                     ??_EUSART_Write:	
  3999                           ; 1 bytes @ 0x1
  4000                           
  4001  0071                     ??_INTERRUPT_InterruptManager:	
  4002                           ; 1 bytes @ 0x1
  4003                           
  4004  0071                     EUSART_SetFramingErrorHandler@interruptHandler:	
  4005                           ; 1 bytes @ 0x1
  4006                           
  4007  0071                     EUSART_SetOverrunErrorHandler@interruptHandler:	
  4008                           ; 2 bytes @ 0x1
  4009                           
  4010  0071                     EUSART_SetErrorHandler@interruptHandler:	
  4011                           ; 2 bytes @ 0x1
  4012                           
  4013  0071                     EUSART_SetTxInterruptHandler@interruptHandler:	
  4014                           ; 2 bytes @ 0x1
  4015                           
  4016  0071                     EUSART_SetRxInterruptHandler@interruptHandler:	
  4017                           ; 2 bytes @ 0x1
  4018                           
  4019                           
  4020                           ; 2 bytes @ 0x1
  4021  0071                     	ds	1
  4022  0072                     EUSART_Write@txData:
  4023                           
  4024                           ; 1 bytes @ 0x2
  4025  0072                     	ds	1
  4026  0073                     ??_EUSART_Initialize:
  4027  0073                     ??_EUSART_SetRxInterruptHandler:	
  4028                           ; 1 bytes @ 0x3
  4029                           
  4030  0073                     ??_EUSART_SetTxInterruptHandler:	
  4031                           ; 1 bytes @ 0x3
  4032                           
  4033  0073                     ??_EUSART_SetFramingErrorHandler:	
  4034                           ; 1 bytes @ 0x3
  4035                           
  4036  0073                     ??_EUSART_SetOverrunErrorHandler:	
  4037                           ; 1 bytes @ 0x3
  4038                           
  4039  0073                     ??_EUSART_SetErrorHandler:	
  4040                           ; 1 bytes @ 0x3
  4041                           
  4042  0073                     ??_putch:	
  4043                           ; 1 bytes @ 0x3
  4044                           
  4045  0073                     putch@txData:	
  4046                           ; 1 bytes @ 0x3
  4047                           
  4048                           
  4049                           ; 1 bytes @ 0x3
  4050  0073                     	ds	1
  4051  0074                     ??_SYSTEM_Initialize:
  4052  0074                     ?_fputc:	
  4053                           ; 1 bytes @ 0x4
  4054                           
  4055  0074                     fputc@c:	
  4056                           ; 2 bytes @ 0x4
  4057                           
  4058                           
  4059                           ; 2 bytes @ 0x4
  4060  0074                     	ds	2
  4061  0076                     fputc@fp:
  4062                           
  4063                           ; 1 bytes @ 0x6
  4064  0076                     	ds	1
  4065  0077                     ??_fputc:
  4066                           
  4067                           ; 1 bytes @ 0x7
  4068  0077                     	ds	5
  4069                           
  4070                           	psect	cstackBANK0
  4071  0045                     __pcstackBANK0:
  4072  0045                     ?_vfpfcnvrt:
  4073  0045                     vfpfcnvrt@fmt:	
  4074                           ; 2 bytes @ 0x0
  4075                           
  4076                           
  4077                           ; 1 bytes @ 0x0
  4078  0045                     	ds	1
  4079  0046                     vfpfcnvrt@ap:
  4080                           
  4081                           ; 1 bytes @ 0x1
  4082  0046                     	ds	1
  4083  0047                     ??_vfpfcnvrt:
  4084                           
  4085                           ; 1 bytes @ 0x2
  4086  0047                     	ds	5
  4087  004C                     vfpfcnvrt@fp:
  4088                           
  4089                           ; 1 bytes @ 0x7
  4090  004C                     	ds	1
  4091  004D                     ?_vfprintf:
  4092  004D                     vfprintf@fmt:	
  4093                           ; 2 bytes @ 0x8
  4094                           
  4095                           
  4096                           ; 2 bytes @ 0x8
  4097  004D                     	ds	2
  4098  004F                     vfprintf@ap:
  4099                           
  4100                           ; 1 bytes @ 0xA
  4101  004F                     	ds	1
  4102  0050                     ??_vfprintf:
  4103                           
  4104                           ; 1 bytes @ 0xB
  4105  0050                     	ds	2
  4106  0052                     vfprintf@fp:
  4107                           
  4108                           ; 1 bytes @ 0xD
  4109  0052                     	ds	1
  4110  0053                     vfprintf@cfmt:
  4111                           
  4112                           ; 2 bytes @ 0xE
  4113  0053                     	ds	2
  4114  0055                     ?_printf:
  4115  0055                     printf@fmt:	
  4116                           ; 2 bytes @ 0x10
  4117                           
  4118                           
  4119                           ; 2 bytes @ 0x10
  4120  0055                     	ds	2
  4121  0057                     ??_printf:
  4122                           
  4123                           ; 1 bytes @ 0x12
  4124  0057                     	ds	1
  4125  0058                     printf@ap:
  4126                           
  4127                           ; 1 bytes @ 0x13
  4128  0058                     	ds	1
  4129  0059                     ??_main:
  4130                           
  4131                           ; 1 bytes @ 0x14
  4132  0059                     	ds	2
  4133                           
  4134                           	psect	maintext
  4135  00BE                     __pmaintext:	
  4136 ;;
  4137 ;;Main: autosize = 0, tempsize = 2, incstack = 0, save=0
  4138 ;;
  4139 ;; *************** function _main *****************
  4140 ;; Defined at:
  4141 ;;		line 49 in file "main.c"
  4142 ;; Parameters:    Size  Location     Type
  4143 ;;		None
  4144 ;; Auto vars:     Size  Location     Type
  4145 ;;		None
  4146 ;; Return value:  Size  Location     Type
  4147 ;;                  1    wreg      void 
  4148 ;; Registers used:
  4149 ;;		wreg, fsr0l, fsr0h, fsr1l, fsr1h, status,2, status,0, pclath, cstack
  4150 ;; Tracked objects:
  4151 ;;		On entry : B1F/0
  4152 ;;		On exit  : 0/0
  4153 ;;		Unchanged: 0/0
  4154 ;; Data sizes:     COMMON   BANK0   BANK1   BANK2   BANK3   BANK4   BANK5   BANK6   BANK7   BANK8   BANK9  BANK10  BANK1
      +1  BANK12
  4155 ;;      Params:         0       0       0       0       0       0       0       0       0       0       0       0       
      +0       0
  4156 ;;      Locals:         0       0       0       0       0       0       0       0       0       0       0       0       
      +0       0
  4157 ;;      Temps:          0       2       0       0       0       0       0       0       0       0       0       0       
      +0       0
  4158 ;;      Totals:         0       2       0       0       0       0       0       0       0       0       0       0       
      +0       0
  4159 ;;Total ram usage:        2 bytes
  4160 ;; Hardware stack levels required when called: 10
  4161 ;; This function calls:
  4162 ;;		_SYSTEM_Initialize
  4163 ;;		_printf
  4164 ;; This function is called by:
  4165 ;;		Startup code after reset
  4166 ;; This function uses a non-reentrant model
  4167 ;;
  4168                           
  4169                           
  4170                           ;psect for function _main
  4171  00BE                     _main:
  4172  00BE                     l1832:	
  4173                           ;incstack = 0
  4174                           ; Regs used in _main: [wreg-fsr1h+status,2+status,0+pclath+cstack]
  4175                           
  4176                           
  4177                           ;main.c: 52:     SYSTEM_Initialize();
  4178  00BE  3182  22A0  3180   	fcall	_SYSTEM_Initialize
  4179  00C1                     l1834:
  4180  00C1  1003               	clrc
  4181  00C2  0020               	movlb	0	; select bank0
  4182  00C3  1C16               	btfss	22,0	;volatile
  4183  00C4  1403               	setc
  4184  00C5  1803               	btfsc	3,0
  4185  00C6  28C8               	goto	u741
  4186  00C7  28CB               	goto	u740
  4187  00C8                     u741:
  4188  00C8  0020               	movlb	0	; select bank0
  4189  00C9  1416               	bsf	22,0	;volatile
  4190  00CA  28CD               	goto	u754
  4191  00CB                     u740:
  4192  00CB  0020               	movlb	0	; select bank0
  4193  00CC  1016               	bcf	22,0	;volatile
  4194  00CD                     u754:
  4195  00CD                     l1836:
  4196  00CD  1003               	clrc
  4197  00CE  1C96               	btfss	22,1	;volatile
  4198  00CF  1403               	setc
  4199  00D0  1803               	btfsc	3,0
  4200  00D1  28D3               	goto	u761
  4201  00D2  28D6               	goto	u760
  4202  00D3                     u761:
  4203  00D3  0020               	movlb	0	; select bank0
  4204  00D4  1496               	bsf	22,1	;volatile
  4205  00D5  28D8               	goto	u774
  4206  00D6                     u760:
  4207  00D6  0020               	movlb	0	; select bank0
  4208  00D7  1096               	bcf	22,1	;volatile
  4209  00D8                     u774:
  4210  00D8                     l1838:
  4211  00D8  1003               	clrc
  4212  00D9  1D16               	btfss	22,2	;volatile
  4213  00DA  1403               	setc
  4214  00DB  1803               	btfsc	3,0
  4215  00DC  28DE               	goto	u781
  4216  00DD  28E1               	goto	u780
  4217  00DE                     u781:
  4218  00DE  0020               	movlb	0	; select bank0
  4219  00DF  1516               	bsf	22,2	;volatile
  4220  00E0  28E3               	goto	u794
  4221  00E1                     u780:
  4222  00E1  0020               	movlb	0	; select bank0
  4223  00E2  1116               	bcf	22,2	;volatile
  4224  00E3                     u794:
  4225  00E3                     l1840:
  4226  00E3  1003               	clrc
  4227  00E4  1D96               	btfss	22,3	;volatile
  4228  00E5  1403               	setc
  4229  00E6  1803               	btfsc	3,0
  4230  00E7  28E9               	goto	u801
  4231  00E8  28EC               	goto	u800
  4232  00E9                     u801:
  4233  00E9  0020               	movlb	0	; select bank0
  4234  00EA  1596               	bsf	22,3	;volatile
  4235  00EB  28EE               	goto	u814
  4236  00EC                     u800:
  4237  00EC  0020               	movlb	0	; select bank0
  4238  00ED  1196               	bcf	22,3	;volatile
  4239  00EE                     u814:
  4240  00EE                     l1842:
  4241                           
  4242                           ;main.c: 77:         printf("HOLA pic\n\r");
  4243  00EE  30B0               	movlw	low (STR_1| (0+32768))
  4244  00EF  00D5               	movwf	printf@fmt
  4245  00F0  3082               	movlw	high (STR_1| (0+32768))
  4246  00F1  00D6               	movwf	printf@fmt+1
  4247  00F2  3182  228E  3180   	fcall	_printf
  4248  00F5                     l1844:
  4249                           
  4250                           ;main.c: 78:         _delay((unsigned long)((1000)*(32000000/4000.0)));
  4251  00F5  3029               	movlw	41
  4252  00F6  0020               	movlb	0	; select bank0
  4253  00F7  00DA               	movwf	??_main+1
  4254  00F8  3096               	movlw	150
  4255  00F9  00D9               	movwf	??_main
  4256  00FA  307F               	movlw	127
  4257  00FB                     u827:
  4258  00FB  0B89               	decfsz	9,f
  4259  00FC  28FB               	goto	u827
  4260  00FD  0BD9               	decfsz	??_main,f
  4261  00FE  28FB               	goto	u827
  4262  00FF  0BDA               	decfsz	??_main+1,f
  4263  0100  28FB               	goto	u827
  4264  0101  28C1               	goto	l1834
  4265  0102  3180  282B         	ljmp	start
  4266  0104                     __end_of_main:
  4267                           
  4268                           	psect	text1
  4269  028E                     __ptext1:	
  4270 ;; *************** function _printf *****************
  4271 ;; Defined at:
  4272 ;;		line 5 in file "C:\Program Files\Microchip\xc8\v2.32\pic\sources\c99\common\printf.c"
  4273 ;; Parameters:    Size  Location     Type
  4274 ;;  fmt             2   16[BANK0 ] PTR const unsigned char 
  4275 ;;		 -> STR_1(11), 
  4276 ;; Auto vars:     Size  Location     Type
  4277 ;;  ret             2    0        int 
  4278 ;;  ap              1   19[BANK0 ] PTR void [1]
  4279 ;;		 -> ?_printf(2), 
  4280 ;; Return value:  Size  Location     Type
  4281 ;;                  2   16[BANK0 ] int 
  4282 ;; Registers used:
  4283 ;;		wreg, fsr0l, fsr0h, fsr1l, fsr1h, status,2, status,0, pclath, cstack
  4284 ;; Tracked objects:
  4285 ;;		On entry : 0/0
  4286 ;;		On exit  : 0/0
  4287 ;;		Unchanged: 0/0
  4288 ;; Data sizes:     COMMON   BANK0   BANK1   BANK2   BANK3   BANK4   BANK5   BANK6   BANK7   BANK8   BANK9  BANK10  BANK1
      +1  BANK12
  4289 ;;      Params:         0       2       0       0       0       0       0       0       0       0       0       0       
      +0       0
  4290 ;;      Locals:         0       1       0       0       0       0       0       0       0       0       0       0       
      +0       0
  4291 ;;      Temps:          0       1       0       0       0       0       0       0       0       0       0       0       
      +0       0
  4292 ;;      Totals:         0       4       0       0       0       0       0       0       0       0       0       0       
      +0       0
  4293 ;;Total ram usage:        4 bytes
  4294 ;; Hardware stack levels used: 1
  4295 ;; Hardware stack levels required when called: 9
  4296 ;; This function calls:
  4297 ;;		_vfprintf
  4298 ;; This function is called by:
  4299 ;;		_main
  4300 ;; This function uses a non-reentrant model
  4301 ;;
  4302                           
  4303                           
  4304                           ;psect for function _printf
  4305  028E                     _printf:
  4306  028E                     l1826:	
  4307                           ;incstack = 0
  4308                           ; Regs used in _printf: [wreg-fsr1h+status,2+status,0+pclath+cstack]
  4309                           
  4310  028E  3057               	movlw	(low ((?_printf| 0+2)))& (0+255)
  4311  028F  0020               	movlb	0	; select bank0
  4312  0290  00D7               	movwf	??_printf
  4313  0291  0857               	movf	??_printf,w
  4314  0292  00D8               	movwf	printf@ap
  4315  0293                     l1828:
  4316  0293  0856               	movf	printf@fmt+1,w
  4317  0294  00CE               	movwf	vfprintf@fmt+1
  4318  0295  0855               	movf	printf@fmt,w
  4319  0296  00CD               	movwf	vfprintf@fmt
  4320  0297  3058               	movlw	(low (printf@ap| 0))& (0+255)
  4321  0298  00D7               	movwf	??_printf
  4322  0299  0857               	movf	??_printf,w
  4323  029A  00CF               	movwf	vfprintf@ap
  4324  029B  3000               	movlw	0
  4325  029C  3182  2212  3182   	fcall	_vfprintf
  4326  029F                     l1063:
  4327  029F  0008               	return
  4328  02A0                     __end_of_printf:
  4329                           
  4330                           	psect	text2
  4331  0212                     __ptext2:	
  4332 ;; *************** function _vfprintf *****************
  4333 ;; Defined at:
  4334 ;;		line 1390 in file "C:\Program Files\Microchip\xc8\v2.32\pic\sources\c99\common\doprnt.c"
  4335 ;; Parameters:    Size  Location     Type
  4336 ;;  fp              1    wreg     PTR struct _IO_FILE
  4337 ;;		 -> NULL(0), 
  4338 ;;  fmt             2    8[BANK0 ] PTR const unsigned char 
  4339 ;;		 -> STR_1(11), 
  4340 ;;  ap              1   10[BANK0 ] PTR PTR void 
  4341 ;;		 -> printf@ap(1), 
  4342 ;; Auto vars:     Size  Location     Type
  4343 ;;  fp              1   13[BANK0 ] PTR struct _IO_FILE
  4344 ;;		 -> NULL(0), 
  4345 ;;  cfmt            2   14[BANK0 ] PTR unsigned char 
  4346 ;;		 -> STR_1(11), 
  4347 ;; Return value:  Size  Location     Type
  4348 ;;                  2    8[BANK0 ] int 
  4349 ;; Registers used:
  4350 ;;		wreg, fsr0l, fsr0h, fsr1l, fsr1h, status,2, status,0, pclath, cstack
  4351 ;; Tracked objects:
  4352 ;;		On entry : 0/0
  4353 ;;		On exit  : 0/0
  4354 ;;		Unchanged: 0/0
  4355 ;; Data sizes:     COMMON   BANK0   BANK1   BANK2   BANK3   BANK4   BANK5   BANK6   BANK7   BANK8   BANK9  BANK10  BANK1
      +1  BANK12
  4356 ;;      Params:         0       3       0       0       0       0       0       0       0       0       0       0       
      +0       0
  4357 ;;      Locals:         0       3       0       0       0       0       0       0       0       0       0       0       
      +0       0
  4358 ;;      Temps:          0       2       0       0       0       0       0       0       0       0       0       0       
      +0       0
  4359 ;;      Totals:         0       8       0       0       0       0       0       0       0       0       0       0       
      +0       0
  4360 ;;Total ram usage:        8 bytes
  4361 ;; Hardware stack levels used: 1
  4362 ;; Hardware stack levels required when called: 8
  4363 ;; This function calls:
  4364 ;;		_vfpfcnvrt
  4365 ;; This function is called by:
  4366 ;;		_printf
  4367 ;; This function uses a non-reentrant model
  4368 ;;
  4369                           
  4370                           
  4371                           ;psect for function _vfprintf
  4372  0212                     _vfprintf:
  4373                           
  4374                           ;incstack = 0
  4375                           ; Regs used in _vfprintf: [wreg-fsr1h+status,2+status,0+pclath+cstack]
  4376                           ;vfprintf@fp stored from wreg
  4377  0212  0020               	movlb	0	; select bank0
  4378  0213  00D2               	movwf	vfprintf@fp
  4379  0214                     l1814:
  4380                           
  4381                           ;C:\Program Files\Microchip\xc8\v2.32\pic\sources\c99\common\doprnt.c: 1390: int vfprint
      +                          f(FILE *fp, const char *fmt, va_list ap);C:\Program Files\Microchip\xc8\v2.32\pic\source
      +                          s\c99\common\doprnt.c: 1391: {;C:\Program Files\Microchip\xc8\v2.32\pic\sources\c99\comm
      +                          on\doprnt.c: 1393:     char *cfmt;;C:\Program Files\Microchip\xc8\v2.32\pic\sources\c99\
      +                          common\doprnt.c: 1395:     cfmt = (char *)fmt;
  4382  0214  084E               	movf	vfprintf@fmt+1,w
  4383  0215  00D4               	movwf	vfprintf@cfmt+1
  4384  0216  084D               	movf	vfprintf@fmt,w
  4385  0217  00D3               	movwf	vfprintf@cfmt
  4386  0218                     l1816:
  4387                           
  4388                           ;C:\Program Files\Microchip\xc8\v2.32\pic\sources\c99\common\doprnt.c: 1396:     nout = 
      +                          0;
  4389  0218  01B8               	clrf	_nout
  4390  0219  01B9               	clrf	_nout+1
  4391                           
  4392                           ;C:\Program Files\Microchip\xc8\v2.32\pic\sources\c99\common\doprnt.c: 1397:     while (
      +                          *cfmt) {
  4393  021A  2A2C               	goto	l1820
  4394  021B                     l1818:
  4395                           
  4396                           ;C:\Program Files\Microchip\xc8\v2.32\pic\sources\c99\common\doprnt.c: 1398:         nou
      +                          t += vfpfcnvrt(fp, &cfmt, ap);
  4397  021B  3053               	movlw	(low (vfprintf@cfmt| 0))& (0+255)
  4398  021C  00D0               	movwf	??_vfprintf
  4399  021D  0850               	movf	??_vfprintf,w
  4400  021E  00C5               	movwf	vfpfcnvrt@fmt
  4401  021F  084F               	movf	vfprintf@ap,w
  4402  0220  00D1               	movwf	??_vfprintf+1
  4403  0221  0851               	movf	??_vfprintf+1,w
  4404  0222  00C6               	movwf	vfpfcnvrt@ap
  4405  0223  0852               	movf	vfprintf@fp,w
  4406  0224  3180  2042  3182   	fcall	_vfpfcnvrt
  4407  0227  0020               	movlb	0	; select bank0
  4408  0228  0845               	movf	?_vfpfcnvrt,w
  4409  0229  07B8               	addwf	_nout,f
  4410  022A  0846               	movf	?_vfpfcnvrt+1,w
  4411  022B  3DB9               	addwfc	_nout+1,f
  4412  022C                     l1820:
  4413                           
  4414                           ;C:\Program Files\Microchip\xc8\v2.32\pic\sources\c99\common\doprnt.c: 1397:     while (
      +                          *cfmt) {
  4415  022C  0853               	movf	vfprintf@cfmt,w
  4416  022D  0084               	movwf	4
  4417  022E  0854               	movf	vfprintf@cfmt+1,w
  4418  022F  0085               	movwf	5
  4419  0230  0012               	moviw fsr0++
  4420  0231  1D03               	btfss	3,2
  4421  0232  2A34               	goto	u731
  4422  0233  2A35               	goto	u730
  4423  0234                     u731:
  4424  0234  2A1B               	goto	l1818
  4425  0235                     u730:
  4426  0235                     l1822:
  4427                           
  4428                           ;C:\Program Files\Microchip\xc8\v2.32\pic\sources\c99\common\doprnt.c: 1400:     return 
      +                          nout;
  4429  0235  0839               	movf	_nout+1,w
  4430  0236  00CE               	movwf	?_vfprintf+1
  4431  0237  0838               	movf	_nout,w
  4432  0238  00CD               	movwf	?_vfprintf
  4433  0239                     l1102:
  4434  0239  0008               	return
  4435  023A                     __end_of_vfprintf:
  4436                           
  4437                           	psect	text3
  4438  0042                     __ptext3:	
  4439 ;; *************** function _vfpfcnvrt *****************
  4440 ;; Defined at:
  4441 ;;		line 692 in file "C:\Program Files\Microchip\xc8\v2.32\pic\sources\c99\common\doprnt.c"
  4442 ;; Parameters:    Size  Location     Type
  4443 ;;  fp              1    wreg     PTR struct _IO_FILE
  4444 ;;		 -> NULL(0), 
  4445 ;;  fmt             1    0[BANK0 ] PTR PTR unsigned char 
  4446 ;;		 -> vfprintf@cfmt(2), 
  4447 ;;  ap              1    1[BANK0 ] PTR PTR void 
  4448 ;;		 -> printf@ap(1), 
  4449 ;; Auto vars:     Size  Location     Type
  4450 ;;  fp              1    7[BANK0 ] PTR struct _IO_FILE
  4451 ;;		 -> NULL(0), 
  4452 ;;  llu             8    0        unsigned long long 
  4453 ;;  ll              8    0        long long 
  4454 ;;  f               4    0        long long 
  4455 ;;  ct              3    0        unsigned char [3]
  4456 ;;  vp              2    0        PTR void 
  4457 ;;  i               2    0        int 
  4458 ;;  done            2    0        int 
  4459 ;;  cp              2    0        PTR unsigned char 
  4460 ;;  c               1    0        unsigned char 
  4461 ;; Return value:  Size  Location     Type
  4462 ;;                  2    0[BANK0 ] int 
  4463 ;; Registers used:
  4464 ;;		wreg, fsr0l, fsr0h, fsr1l, fsr1h, status,2, status,0, pclath, cstack
  4465 ;; Tracked objects:
  4466 ;;		On entry : 0/0
  4467 ;;		On exit  : 0/0
  4468 ;;		Unchanged: 0/0
  4469 ;; Data sizes:     COMMON   BANK0   BANK1   BANK2   BANK3   BANK4   BANK5   BANK6   BANK7   BANK8   BANK9  BANK10  BANK1
      +1  BANK12
  4470 ;;      Params:         0       2       0       0       0       0       0       0       0       0       0       0       
      +0       0
  4471 ;;      Locals:         0       1       0       0       0       0       0       0       0       0       0       0       
      +0       0
  4472 ;;      Temps:          0       5       0       0       0       0       0       0       0       0       0       0       
      +0       0
  4473 ;;      Totals:         0       8       0       0       0       0       0       0       0       0       0       0       
      +0       0
  4474 ;;Total ram usage:        8 bytes
  4475 ;; Hardware stack levels used: 1
  4476 ;; Hardware stack levels required when called: 7
  4477 ;; This function calls:
  4478 ;;		_fputc
  4479 ;; This function is called by:
  4480 ;;		_vfprintf
  4481 ;; This function uses a non-reentrant model
  4482 ;;
  4483                           
  4484                           
  4485                           ;psect for function _vfpfcnvrt
  4486  0042                     _vfpfcnvrt:
  4487                           
  4488                           ;incstack = 0
  4489                           ; Regs used in _vfpfcnvrt: [wreg-fsr1h+status,2+status,0+pclath+cstack]
  4490                           ;vfpfcnvrt@fp stored from wreg
  4491  0042  0020               	movlb	0	; select bank0
  4492  0043  00CC               	movwf	vfpfcnvrt@fp
  4493  0044                     l1782:
  4494                           
  4495                           ;C:\Program Files\Microchip\xc8\v2.32\pic\sources\c99\common\doprnt.c: 692: static int v
      +                          fpfcnvrt(FILE *fp, char *fmt[], va_list ap);C:\Program Files\Microchip\xc8\v2.32\pic\sou
      +                          rces\c99\common\doprnt.c: 693: {;C:\Program Files\Microchip\xc8\v2.32\pic\sources\c99\co
      +                          mmon\doprnt.c: 694:     char c, *cp, ct[3];;C:\Program Files\Microchip\xc8\v2.32\pic\sou
      +                          rces\c99\common\doprnt.c: 695:     int done, i;;C:\Program Files\Microchip\xc8\v2.32\pic
      +                          \sources\c99\common\doprnt.c: 696:     long long ll;;C:\Program Files\Microchip\xc8\v2.3
      +                          2\pic\sources\c99\common\doprnt.c: 697:     unsigned long long llu;
  4496  0044  0845               	movf	vfpfcnvrt@fmt,w
  4497  0045  0086               	movwf	6
  4498  0046  0187               	clrf	7
  4499  0047  3F40               	moviw [0]fsr1
  4500  0048  00C7               	movwf	??_vfpfcnvrt
  4501  0049  3F41               	moviw [1]fsr1
  4502  004A  00C8               	movwf	??_vfpfcnvrt+1
  4503  004B  0847               	movf	??_vfpfcnvrt,w
  4504  004C  0084               	movwf	4
  4505  004D  0848               	movf	??_vfpfcnvrt+1,w
  4506  004E  0085               	movwf	5
  4507  004F  0012               	moviw fsr0++
  4508  0050  3A25               	xorlw	37
  4509  0051  1D03               	btfss	3,2
  4510  0052  2854               	goto	u711
  4511  0053  2855               	goto	u710
  4512  0054                     u711:
  4513  0054  289A               	goto	l1806
  4514  0055                     u710:
  4515  0055                     l1784:
  4516                           
  4517                           ;C:\Program Files\Microchip\xc8\v2.32\pic\sources\c99\common\doprnt.c: 703:         ++*f
      +                          mt;
  4518  0055  0845               	movf	vfpfcnvrt@fmt,w
  4519  0056  0086               	movwf	6
  4520  0057  0187               	clrf	7
  4521  0058  3001               	movlw	1
  4522  0059  0781               	addwf	1,f
  4523  005A  3141               	addfsr 1,1
  4524  005B  1803               	skipnc
  4525  005C  0A81               	incf	1,f
  4526  005D                     l1786:
  4527                           
  4528                           ;C:\Program Files\Microchip\xc8\v2.32\pic\sources\c99\common\doprnt.c: 705:         flag
      +                          s = width = 0;
  4529  005D  01BA               	clrf	_width
  4530  005E  01BB               	clrf	_width+1
  4531  005F  01BE               	clrf	_flags
  4532  0060  01BF               	clrf	_flags+1
  4533  0061                     l1788:
  4534                           
  4535                           ;C:\Program Files\Microchip\xc8\v2.32\pic\sources\c99\common\doprnt.c: 706:         prec
      +                           = -1;
  4536  0061  30FF               	movlw	255
  4537  0062  00BC               	movwf	_prec
  4538  0063  30FF               	movlw	255
  4539  0064  00BD               	movwf	_prec+1
  4540  0065                     l1790:
  4541                           
  4542                           ;C:\Program Files\Microchip\xc8\v2.32\pic\sources\c99\common\doprnt.c: 1372:         if 
      +                          ((*fmt)[0] == '%') {
  4543  0065  0845               	movf	vfpfcnvrt@fmt,w
  4544  0066  0086               	movwf	6
  4545  0067  0187               	clrf	7
  4546  0068  3F40               	moviw [0]fsr1
  4547  0069  00C7               	movwf	??_vfpfcnvrt
  4548  006A  3F41               	moviw [1]fsr1
  4549  006B  00C8               	movwf	??_vfpfcnvrt+1
  4550  006C  0847               	movf	??_vfpfcnvrt,w
  4551  006D  0084               	movwf	4
  4552  006E  0848               	movf	??_vfpfcnvrt+1,w
  4553  006F  0085               	movwf	5
  4554  0070  0012               	moviw fsr0++
  4555  0071  3A25               	xorlw	37
  4556  0072  1D03               	btfss	3,2
  4557  0073  2875               	goto	u721
  4558  0074  2876               	goto	u720
  4559  0075                     u721:
  4560  0075  288F               	goto	l1800
  4561  0076                     u720:
  4562  0076                     l1792:
  4563                           
  4564                           ;C:\Program Files\Microchip\xc8\v2.32\pic\sources\c99\common\doprnt.c: 1373:            
      +                           ++*fmt;
  4565  0076  0845               	movf	vfpfcnvrt@fmt,w
  4566  0077  0086               	movwf	6
  4567  0078  0187               	clrf	7
  4568  0079  3001               	movlw	1
  4569  007A  0781               	addwf	1,f
  4570  007B  3141               	addfsr 1,1
  4571  007C  1803               	skipnc
  4572  007D  0A81               	incf	1,f
  4573  007E                     l1794:
  4574                           
  4575                           ;C:\Program Files\Microchip\xc8\v2.32\pic\sources\c99\common\doprnt.c: 1374:            
      +                           fputc((int)'%', fp);
  4576  007E  3025               	movlw	37
  4577  007F  00F4               	movwf	fputc@c
  4578  0080  3000               	movlw	0
  4579  0081  00F5               	movwf	fputc@c+1
  4580  0082  084C               	movf	vfpfcnvrt@fp,w
  4581  0083  00C7               	movwf	??_vfpfcnvrt
  4582  0084  0847               	movf	??_vfpfcnvrt,w
  4583  0085  00F6               	movwf	fputc@fp
  4584  0086  3181  2144  3180   	fcall	_fputc
  4585  0089                     l1796:
  4586                           
  4587                           ;C:\Program Files\Microchip\xc8\v2.32\pic\sources\c99\common\doprnt.c: 1375:            
      +                           return 1;
  4588  0089  3001               	movlw	1
  4589  008A  0020               	movlb	0	; select bank0
  4590  008B  00C5               	movwf	?_vfpfcnvrt
  4591  008C  3000               	movlw	0
  4592  008D  00C6               	movwf	?_vfpfcnvrt+1
  4593  008E  28BD               	goto	l1096
  4594  008F                     l1800:
  4595                           
  4596                           ;C:\Program Files\Microchip\xc8\v2.32\pic\sources\c99\common\doprnt.c: 1379:         ++*
      +                          fmt;
  4597  008F  0845               	movf	vfpfcnvrt@fmt,w
  4598  0090  0086               	movwf	6
  4599  0091  0187               	clrf	7
  4600  0092  3001               	movlw	1
  4601  0093  0781               	addwf	1,f
  4602  0094  3141               	addfsr 1,1
  4603  0095  1803               	skipnc
  4604  0096  0A81               	incf	1,f
  4605  0097                     l1802:
  4606                           
  4607                           ;C:\Program Files\Microchip\xc8\v2.32\pic\sources\c99\common\doprnt.c: 1380:         ret
      +                          urn 0;
  4608  0097  01C5               	clrf	?_vfpfcnvrt
  4609  0098  01C6               	clrf	?_vfpfcnvrt+1
  4610  0099  28BD               	goto	l1096
  4611  009A                     l1806:
  4612                           
  4613                           ;C:\Program Files\Microchip\xc8\v2.32\pic\sources\c99\common\doprnt.c: 1384:     fputc((
      +                          int)(*fmt)[0], fp);
  4614  009A  0845               	movf	vfpfcnvrt@fmt,w
  4615  009B  0086               	movwf	6
  4616  009C  0187               	clrf	7
  4617  009D  3F40               	moviw [0]fsr1
  4618  009E  00C7               	movwf	??_vfpfcnvrt
  4619  009F  3F41               	moviw [1]fsr1
  4620  00A0  00C8               	movwf	??_vfpfcnvrt+1
  4621  00A1  0847               	movf	??_vfpfcnvrt,w
  4622  00A2  0084               	movwf	4
  4623  00A3  0848               	movf	??_vfpfcnvrt+1,w
  4624  00A4  0085               	movwf	5
  4625  00A5  0800               	movf	0,w	;code access
  4626  00A6  00C9               	movwf	??_vfpfcnvrt+2
  4627  00A7  01CA               	clrf	??_vfpfcnvrt+3
  4628  00A8  0849               	movf	??_vfpfcnvrt+2,w
  4629  00A9  00F4               	movwf	fputc@c
  4630  00AA  084A               	movf	??_vfpfcnvrt+3,w
  4631  00AB  00F5               	movwf	fputc@c+1
  4632  00AC  084C               	movf	vfpfcnvrt@fp,w
  4633  00AD  00CB               	movwf	??_vfpfcnvrt+4
  4634  00AE  084B               	movf	??_vfpfcnvrt+4,w
  4635  00AF  00F6               	movwf	fputc@fp
  4636  00B0  3181  2144  3180   	fcall	_fputc
  4637  00B3                     l1808:
  4638                           
  4639                           ;C:\Program Files\Microchip\xc8\v2.32\pic\sources\c99\common\doprnt.c: 1385:     ++*fmt;
  4640  00B3  0020               	movlb	0	; select bank0
  4641  00B4  0845               	movf	vfpfcnvrt@fmt,w
  4642  00B5  0086               	movwf	6
  4643  00B6  0187               	clrf	7
  4644  00B7  3001               	movlw	1
  4645  00B8  0781               	addwf	1,f
  4646  00B9  3141               	addfsr 1,1
  4647  00BA  1803               	skipnc
  4648  00BB  0A81               	incf	1,f
  4649  00BC  2889               	goto	l1796
  4650  00BD                     l1096:
  4651  00BD  0008               	return
  4652  00BE                     __end_of_vfpfcnvrt:
  4653                           
  4654                           	psect	text4
  4655  0144                     __ptext4:	
  4656 ;; *************** function _fputc *****************
  4657 ;; Defined at:
  4658 ;;		line 8 in file "C:\Program Files\Microchip\xc8\v2.32\pic\sources\c99\common\nf_fputc.c"
  4659 ;; Parameters:    Size  Location     Type
  4660 ;;  c               2    4[COMMON] int 
  4661 ;;  fp              1    6[COMMON] PTR struct _IO_FILE
  4662 ;;		 -> NULL(0), 
  4663 ;; Auto vars:     Size  Location     Type
  4664 ;;		None
  4665 ;; Return value:  Size  Location     Type
  4666 ;;                  2    4[COMMON] int 
  4667 ;; Registers used:
  4668 ;;		wreg, fsr1l, fsr1h, status,2, status,0, pclath, cstack
  4669 ;; Tracked objects:
  4670 ;;		On entry : 0/0
  4671 ;;		On exit  : 0/0
  4672 ;;		Unchanged: 0/0
  4673 ;; Data sizes:     COMMON   BANK0   BANK1   BANK2   BANK3   BANK4   BANK5   BANK6   BANK7   BANK8   BANK9  BANK10  BANK1
      +1  BANK12
  4674 ;;      Params:         3       0       0       0       0       0       0       0       0       0       0       0       
      +0       0
  4675 ;;      Locals:         0       0       0       0       0       0       0       0       0       0       0       0       
      +0       0
  4676 ;;      Temps:          5       0       0       0       0       0       0       0       0       0       0       0       
      +0       0
  4677 ;;      Totals:         8       0       0       0       0       0       0       0       0       0       0       0       
      +0       0
  4678 ;;Total ram usage:        8 bytes
  4679 ;; Hardware stack levels used: 1
  4680 ;; Hardware stack levels required when called: 6
  4681 ;; This function calls:
  4682 ;;		_putch
  4683 ;; This function is called by:
  4684 ;;		_vfpfcnvrt
  4685 ;; This function uses a non-reentrant model
  4686 ;;
  4687                           
  4688                           
  4689                           ;psect for function _fputc
  4690  0144                     _fputc:
  4691  0144                     l1768:	
  4692                           ;incstack = 0
  4693                           ; Regs used in _fputc: [wreg+fsr1l+fsr1h+status,2+status,0+pclath+cstack]
  4694                           
  4695  0144  0876               	movf	fputc@fp,w
  4696  0145  1903               	btfsc	3,2
  4697  0146  2948               	goto	u671
  4698  0147  2949               	goto	u670
  4699  0148                     u671:
  4700  0148  294E               	goto	l1772
  4701  0149                     u670:
  4702  0149                     l1770:
  4703  0149  0876               	movf	fputc@fp,w
  4704  014A  1D03               	btfss	3,2
  4705  014B  294D               	goto	u681
  4706  014C  294E               	goto	u680
  4707  014D                     u681:
  4708  014D  2953               	goto	l1774
  4709  014E                     u680:
  4710  014E                     l1772:
  4711  014E  0874               	movf	fputc@c,w
  4712  014F  3182  22D2  3181   	fcall	_putch
  4713  0152  2982               	goto	l1114
  4714  0153                     l1774:
  4715  0153  0876               	movf	fputc@fp,w
  4716  0154  3E03               	addlw	3
  4717  0155  0086               	movwf	6
  4718  0156  0187               	clrf	7
  4719  0157  0016               	moviw fsr1++
  4720  0158  0401               	iorwf	1,w
  4721  0159  1903               	btfsc	3,2
  4722  015A  295C               	goto	u691
  4723  015B  295D               	goto	u690
  4724  015C                     u691:
  4725  015C  297A               	goto	l1778
  4726  015D                     u690:
  4727  015D                     l1776:
  4728  015D  0876               	movf	fputc@fp,w
  4729  015E  3E03               	addlw	3
  4730  015F  0086               	movwf	6
  4731  0160  0187               	clrf	7
  4732  0161  3F40               	moviw [0]fsr1
  4733  0162  00F7               	movwf	??_fputc
  4734  0163  3F41               	moviw [1]fsr1
  4735  0164  00F8               	movwf	??_fputc+1
  4736  0165  0A76               	incf	fputc@fp,w
  4737  0166  0086               	movwf	6
  4738  0167  0187               	clrf	7
  4739  0168  3F40               	moviw [0]fsr1
  4740  0169  00F9               	movwf	??_fputc+2
  4741  016A  3F41               	moviw [1]fsr1
  4742  016B  00FA               	movwf	??_fputc+3
  4743  016C  087A               	movf	??_fputc+3,w
  4744  016D  3A80               	xorlw	128
  4745  016E  00FB               	movwf	??_fputc+4
  4746  016F  0878               	movf	??_fputc+1,w
  4747  0170  3A80               	xorlw	128
  4748  0171  027B               	subwf	??_fputc+4,w
  4749  0172  1D03               	skipz
  4750  0173  2976               	goto	u705
  4751  0174  0877               	movf	??_fputc,w
  4752  0175  0279               	subwf	??_fputc+2,w
  4753  0176                     u705:
  4754  0176  1803               	skipnc
  4755  0177  2979               	goto	u701
  4756  0178  297A               	goto	u700
  4757  0179                     u701:
  4758  0179  2982               	goto	l1114
  4759  017A                     u700:
  4760  017A                     l1778:
  4761  017A  0A76               	incf	fputc@fp,w
  4762  017B  0086               	movwf	6
  4763  017C  0187               	clrf	7
  4764  017D  3001               	movlw	1
  4765  017E  0781               	addwf	1,f
  4766  017F  3141               	addfsr 1,1
  4767  0180  1803               	skipnc
  4768  0181  0A81               	incf	1,f
  4769  0182                     l1114:
  4770  0182  0008               	return
  4771  0183                     __end_of_fputc:
  4772                           
  4773                           	psect	text5
  4774  02D2                     __ptext5:	
  4775 ;; *************** function _putch *****************
  4776 ;; Defined at:
  4777 ;;		line 201 in file "mcc_generated_files/eusart.c"
  4778 ;; Parameters:    Size  Location     Type
  4779 ;;  txData          1    wreg     unsigned char 
  4780 ;; Auto vars:     Size  Location     Type
  4781 ;;  txData          1    3[COMMON] unsigned char 
  4782 ;; Return value:  Size  Location     Type
  4783 ;;                  1    wreg      void 
  4784 ;; Registers used:
  4785 ;;		wreg, fsr1l, fsr1h, status,2, status,0, pclath, cstack
  4786 ;; Tracked objects:
  4787 ;;		On entry : 0/0
  4788 ;;		On exit  : 0/0
  4789 ;;		Unchanged: 0/0
  4790 ;; Data sizes:     COMMON   BANK0   BANK1   BANK2   BANK3   BANK4   BANK5   BANK6   BANK7   BANK8   BANK9  BANK10  BANK1
      +1  BANK12
  4791 ;;      Params:         0       0       0       0       0       0       0       0       0       0       0       0       
      +0       0
  4792 ;;      Locals:         1       0       0       0       0       0       0       0       0       0       0       0       
      +0       0
  4793 ;;      Temps:          0       0       0       0       0       0       0       0       0       0       0       0       
      +0       0
  4794 ;;      Totals:         1       0       0       0       0       0       0       0       0       0       0       0       
      +0       0
  4795 ;;Total ram usage:        1 bytes
  4796 ;; Hardware stack levels used: 1
  4797 ;; Hardware stack levels required when called: 5
  4798 ;; This function calls:
  4799 ;;		_EUSART_Write
  4800 ;; This function is called by:
  4801 ;;		_fputc
  4802 ;; This function uses a non-reentrant model
  4803 ;;
  4804                           
  4805                           
  4806                           ;psect for function _putch
  4807  02D2                     _putch:
  4808                           
  4809                           ;incstack = 0
  4810                           ; Regs used in _putch: [wreg+fsr1l+fsr1h+status,2+status,0+pclath+cstack]
  4811                           ;putch@txData stored from wreg
  4812  02D2  00F3               	movwf	putch@txData
  4813  02D3                     l1766:
  4814                           
  4815                           ;mcc_generated_files/eusart.c: 201: void putch(char txData);mcc_generated_files/eusart.c
      +                          : 202: {;mcc_generated_files/eusart.c: 203:     EUSART_Write(txData);
  4816  02D3  0873               	movf	putch@txData,w
  4817  02D4  3181  21E8  3182   	fcall	_EUSART_Write
  4818  02D7                     l386:
  4819  02D7  0008               	return
  4820  02D8                     __end_of_putch:
  4821                           
  4822                           	psect	text6
  4823  01E8                     __ptext6:	
  4824 ;; *************** function _EUSART_Write *****************
  4825 ;; Defined at:
  4826 ;;		line 173 in file "mcc_generated_files/eusart.c"
  4827 ;; Parameters:    Size  Location     Type
  4828 ;;  txData          1    wreg     unsigned char 
  4829 ;; Auto vars:     Size  Location     Type
  4830 ;;  txData          1    2[COMMON] unsigned char 
  4831 ;; Return value:  Size  Location     Type
  4832 ;;                  1    wreg      void 
  4833 ;; Registers used:
  4834 ;;		wreg, fsr1l, fsr1h, status,2, status,0
  4835 ;; Tracked objects:
  4836 ;;		On entry : 0/0
  4837 ;;		On exit  : 0/0
  4838 ;;		Unchanged: 0/0
  4839 ;; Data sizes:     COMMON   BANK0   BANK1   BANK2   BANK3   BANK4   BANK5   BANK6   BANK7   BANK8   BANK9  BANK10  BANK1
      +1  BANK12
  4840 ;;      Params:         0       0       0       0       0       0       0       0       0       0       0       0       
      +0       0
  4841 ;;      Locals:         1       0       0       0       0       0       0       0       0       0       0       0       
      +0       0
  4842 ;;      Temps:          1       0       0       0       0       0       0       0       0       0       0       0       
      +0       0
  4843 ;;      Totals:         2       0       0       0       0       0       0       0       0       0       0       0       
      +0       0
  4844 ;;Total ram usage:        2 bytes
  4845 ;; Hardware stack levels used: 1
  4846 ;; Hardware stack levels required when called: 4
  4847 ;; This function calls:
  4848 ;;		Nothing
  4849 ;; This function is called by:
  4850 ;;		_putch
  4851 ;; This function uses a non-reentrant model
  4852 ;;
  4853                           
  4854                           
  4855                           ;psect for function _EUSART_Write
  4856  01E8                     _EUSART_Write:
  4857                           
  4858                           ;incstack = 0
  4859                           ; Regs used in _EUSART_Write: [wreg+fsr1l+fsr1h+status,2+status,0]
  4860                           ;EUSART_Write@txData stored from wreg
  4861  01E8  00F2               	movwf	EUSART_Write@txData
  4862  01E9                     l1748:
  4863  01E9                     l1750:	
  4864                           ;mcc_generated_files/eusart.c: 173: void EUSART_Write(uint8_t txData);mcc_generated_file
      +                          s/eusart.c: 174: {;mcc_generated_files/eusart.c: 175:     while(0 == eusartTxBufferRemai
      +                          ning)
  4865                           
  4866                           
  4867                           ;mcc_generated_files/eusart.c: 175:     while(0 == eusartTxBufferRemaining)
  4868  01E9  0020               	movlb	0	; select bank0
  4869  01EA  0865               	movf	_eusartTxBufferRemaining,w	;volatile
  4870  01EB  1903               	btfsc	3,2
  4871  01EC  29EE               	goto	u641
  4872  01ED  29EF               	goto	u640
  4873  01EE                     u641:
  4874  01EE  29E9               	goto	l1750
  4875  01EF                     u640:
  4876  01EF                     l376:
  4877                           
  4878                           ;mcc_generated_files/eusart.c: 179:     if(0 == PIE3bits.TXIE)
  4879  01EF  002E               	movlb	14	; select bank14
  4880  01F0  1A19               	btfsc	25,4	;volatile
  4881  01F1  29F3               	goto	u651
  4882  01F2  29F4               	goto	u650
  4883  01F3                     u651:
  4884  01F3  29F8               	goto	l377
  4885  01F4                     u650:
  4886  01F4                     l1752:
  4887                           
  4888                           ;mcc_generated_files/eusart.c: 180:     {;mcc_generated_files/eusart.c: 181:         TX1
      +                          REG = txData;
  4889  01F4  0872               	movf	EUSART_Write@txData,w
  4890  01F5  0022               	movlb	2	; select bank2
  4891  01F6  009A               	movwf	26	;volatile
  4892                           
  4893                           ;mcc_generated_files/eusart.c: 182:     }
  4894  01F7  2A0F               	goto	l1764
  4895  01F8                     l377:	
  4896                           ;mcc_generated_files/eusart.c: 183:     else
  4897                           
  4898                           
  4899                           ;mcc_generated_files/eusart.c: 184:     {;mcc_generated_files/eusart.c: 185:         PIE
      +                          3bits.TXIE = 0;
  4900  01F8  1219               	bcf	25,4	;volatile
  4901  01F9                     l1754:
  4902                           
  4903                           ;mcc_generated_files/eusart.c: 186:         eusartTxBuffer[eusartTxHead++] = txData;
  4904  01F9  0872               	movf	EUSART_Write@txData,w
  4905  01FA  00F1               	movwf	??_EUSART_Write
  4906  01FB  0020               	movlb	0	; select bank0
  4907  01FC  0844               	movf	_eusartTxHead,w
  4908  01FD  3E30               	addlw	(low (_eusartTxBuffer| 0))& (0+255)
  4909  01FE  0086               	movwf	6
  4910  01FF  0187               	clrf	7
  4911  0200  0871               	movf	??_EUSART_Write,w
  4912  0201  0081               	movwf	1
  4913  0202                     l1756:
  4914  0202  3001               	movlw	1
  4915  0203  00F1               	movwf	??_EUSART_Write
  4916  0204  0871               	movf	??_EUSART_Write,w
  4917  0205  07C4               	addwf	_eusartTxHead,f	;volatile
  4918  0206                     l1758:
  4919                           
  4920                           ;mcc_generated_files/eusart.c: 187:         if(sizeof(eusartTxBuffer) <= eusartTxHead)
  4921  0206  3008               	movlw	8
  4922  0207  0244               	subwf	_eusartTxHead,w	;volatile
  4923  0208  1C03               	skipc
  4924  0209  2A0B               	goto	u661
  4925  020A  2A0C               	goto	u660
  4926  020B                     u661:
  4927  020B  2A0D               	goto	l1762
  4928  020C                     u660:
  4929  020C                     l1760:
  4930                           
  4931                           ;mcc_generated_files/eusart.c: 188:         {;mcc_generated_files/eusart.c: 189:        
      +                               eusartTxHead = 0;
  4932  020C  01C4               	clrf	_eusartTxHead	;volatile
  4933  020D                     l1762:
  4934                           
  4935                           ;mcc_generated_files/eusart.c: 191:         eusartTxBufferRemaining--;
  4936  020D  3001               	movlw	1
  4937  020E  02E5               	subwf	_eusartTxBufferRemaining,f	;volatile
  4938  020F                     l1764:
  4939                           
  4940                           ;mcc_generated_files/eusart.c: 193:     PIE3bits.TXIE = 1;
  4941  020F  002E               	movlb	14	; select bank14
  4942  0210  1619               	bsf	25,4	;volatile
  4943  0211                     l380:
  4944  0211  0008               	return
  4945  0212                     __end_of_EUSART_Write:
  4946                           
  4947                           	psect	text7
  4948  02A0                     __ptext7:	
  4949 ;; *************** function _SYSTEM_Initialize *****************
  4950 ;; Defined at:
  4951 ;;		line 50 in file "mcc_generated_files/mcc.c"
  4952 ;; Parameters:    Size  Location     Type
  4953 ;;		None
  4954 ;; Auto vars:     Size  Location     Type
  4955 ;;		None
  4956 ;; Return value:  Size  Location     Type
  4957 ;;                  1    wreg      void 
  4958 ;; Registers used:
  4959 ;;		wreg, status,2, status,0, pclath, cstack
  4960 ;; Tracked objects:
  4961 ;;		On entry : 0/0
  4962 ;;		On exit  : 0/0
  4963 ;;		Unchanged: 0/0
  4964 ;; Data sizes:     COMMON   BANK0   BANK1   BANK2   BANK3   BANK4   BANK5   BANK6   BANK7   BANK8   BANK9  BANK10  BANK1
      +1  BANK12
  4965 ;;      Params:         0       0       0       0       0       0       0       0       0       0       0       0       
      +0       0
  4966 ;;      Locals:         0       0       0       0       0       0       0       0       0       0       0       0       
      +0       0
  4967 ;;      Temps:          0       0       0       0       0       0       0       0       0       0       0       0       
      +0       0
  4968 ;;      Totals:         0       0       0       0       0       0       0       0       0       0       0       0       
      +0       0
  4969 ;;Total ram usage:        0 bytes
  4970 ;; Hardware stack levels used: 1
  4971 ;; Hardware stack levels required when called: 6
  4972 ;; This function calls:
  4973 ;;		_ADCC_Initialize
  4974 ;;		_EUSART_Initialize
  4975 ;;		_OSCILLATOR_Initialize
  4976 ;;		_PIN_MANAGER_Initialize
  4977 ;;		_PMD_Initialize
  4978 ;; This function is called by:
  4979 ;;		_main
  4980 ;; This function uses a non-reentrant model
  4981 ;;
  4982                           
  4983                           
  4984                           ;psect for function _SYSTEM_Initialize
  4985  02A0                     _SYSTEM_Initialize:
  4986  02A0                     l1648:	
  4987                           ;incstack = 0
  4988                           ; Regs used in _SYSTEM_Initialize: [wreg+status,2+status,0+pclath+cstack]
  4989                           
  4990                           
  4991                           ;mcc_generated_files/mcc.c: 52:     PMD_Initialize();
  4992  02A0  3182  22C4  3182   	fcall	_PMD_Initialize
  4993  02A3                     l1650:
  4994                           
  4995                           ;mcc_generated_files/mcc.c: 53:     PIN_MANAGER_Initialize();
  4996  02A3  3181  21BC  3182   	fcall	_PIN_MANAGER_Initialize
  4997  02A6                     l1652:
  4998                           
  4999                           ;mcc_generated_files/mcc.c: 54:     OSCILLATOR_Initialize();
  5000  02A6  3182  22BB  3182   	fcall	_OSCILLATOR_Initialize
  5001  02A9                     l1654:
  5002                           
  5003                           ;mcc_generated_files/mcc.c: 55:     ADCC_Initialize();
  5004  02A9  3182  2276  3182   	fcall	_ADCC_Initialize
  5005  02AC                     l1656:
  5006                           
  5007                           ;mcc_generated_files/mcc.c: 56:     EUSART_Initialize();
  5008  02AC  3181  2104  3182   	fcall	_EUSART_Initialize
  5009  02AF                     l115:
  5010  02AF  0008               	return
  5011  02B0                     __end_of_SYSTEM_Initialize:
  5012                           
  5013                           	psect	text8
  5014  02C4                     __ptext8:	
  5015 ;; *************** function _PMD_Initialize *****************
  5016 ;; Defined at:
  5017 ;;		line 73 in file "mcc_generated_files/mcc.c"
  5018 ;; Parameters:    Size  Location     Type
  5019 ;;		None
  5020 ;; Auto vars:     Size  Location     Type
  5021 ;;		None
  5022 ;; Return value:  Size  Location     Type
  5023 ;;                  1    wreg      void 
  5024 ;; Registers used:
  5025 ;;		status,2
  5026 ;; Tracked objects:
  5027 ;;		On entry : 0/0
  5028 ;;		On exit  : 0/0
  5029 ;;		Unchanged: 0/0
  5030 ;; Data sizes:     COMMON   BANK0   BANK1   BANK2   BANK3   BANK4   BANK5   BANK6   BANK7   BANK8   BANK9  BANK10  BANK1
      +1  BANK12
  5031 ;;      Params:         0       0       0       0       0       0       0       0       0       0       0       0       
      +0       0
  5032 ;;      Locals:         0       0       0       0       0       0       0       0       0       0       0       0       
      +0       0
  5033 ;;      Temps:          0       0       0       0       0       0       0       0       0       0       0       0       
      +0       0
  5034 ;;      Totals:         0       0       0       0       0       0       0       0       0       0       0       0       
      +0       0
  5035 ;;Total ram usage:        0 bytes
  5036 ;; Hardware stack levels used: 1
  5037 ;; Hardware stack levels required when called: 4
  5038 ;; This function calls:
  5039 ;;		Nothing
  5040 ;; This function is called by:
  5041 ;;		_SYSTEM_Initialize
  5042 ;; This function uses a non-reentrant model
  5043 ;;
  5044                           
  5045                           
  5046                           ;psect for function _PMD_Initialize
  5047  02C4                     _PMD_Initialize:
  5048  02C4                     l1248:	
  5049                           ;incstack = 0
  5050                           ; Regs used in _PMD_Initialize: [status,2]
  5051                           
  5052                           
  5053                           ;mcc_generated_files/mcc.c: 76:     PMD0 = 0x00;
  5054  02C4  002F               	movlb	15	; select bank15
  5055  02C5  0196               	clrf	22	;volatile
  5056                           
  5057                           ;mcc_generated_files/mcc.c: 78:     PMD1 = 0x00;
  5058  02C6  0197               	clrf	23	;volatile
  5059                           
  5060                           ;mcc_generated_files/mcc.c: 80:     PMD2 = 0x00;
  5061  02C7  0198               	clrf	24	;volatile
  5062                           
  5063                           ;mcc_generated_files/mcc.c: 82:     PMD3 = 0x00;
  5064  02C8  0199               	clrf	25	;volatile
  5065                           
  5066                           ;mcc_generated_files/mcc.c: 84:     PMD4 = 0x00;
  5067  02C9  019A               	clrf	26	;volatile
  5068                           
  5069                           ;mcc_generated_files/mcc.c: 86:     PMD5 = 0x00;
  5070  02CA  019B               	clrf	27	;volatile
  5071  02CB                     l121:
  5072  02CB  0008               	return
  5073  02CC                     __end_of_PMD_Initialize:
  5074                           
  5075                           	psect	text9
  5076  01BC                     __ptext9:	
  5077 ;; *************** function _PIN_MANAGER_Initialize *****************
  5078 ;; Defined at:
  5079 ;;		line 55 in file "mcc_generated_files/pin_manager.c"
  5080 ;; Parameters:    Size  Location     Type
  5081 ;;		None
  5082 ;; Auto vars:     Size  Location     Type
  5083 ;;		None
  5084 ;; Return value:  Size  Location     Type
  5085 ;;                  1    wreg      void 
  5086 ;; Registers used:
  5087 ;;		wreg, status,2
  5088 ;; Tracked objects:
  5089 ;;		On entry : 0/0
  5090 ;;		On exit  : 0/0
  5091 ;;		Unchanged: 0/0
  5092 ;; Data sizes:     COMMON   BANK0   BANK1   BANK2   BANK3   BANK4   BANK5   BANK6   BANK7   BANK8   BANK9  BANK10  BANK1
      +1  BANK12
  5093 ;;      Params:         0       0       0       0       0       0       0       0       0       0       0       0       
      +0       0
  5094 ;;      Locals:         0       0       0       0       0       0       0       0       0       0       0       0       
      +0       0
  5095 ;;      Temps:          0       0       0       0       0       0       0       0       0       0       0       0       
      +0       0
  5096 ;;      Totals:         0       0       0       0       0       0       0       0       0       0       0       0       
      +0       0
  5097 ;;Total ram usage:        0 bytes
  5098 ;; Hardware stack levels used: 1
  5099 ;; Hardware stack levels required when called: 4
  5100 ;; This function calls:
  5101 ;;		Nothing
  5102 ;; This function is called by:
  5103 ;;		_SYSTEM_Initialize
  5104 ;; This function uses a non-reentrant model
  5105 ;;
  5106                           
  5107                           
  5108                           ;psect for function _PIN_MANAGER_Initialize
  5109  01BC                     _PIN_MANAGER_Initialize:
  5110  01BC                     l1216:	
  5111                           ;incstack = 0
  5112                           ; Regs used in _PIN_MANAGER_Initialize: [wreg+status,2]
  5113                           
  5114                           
  5115                           ;mcc_generated_files/pin_manager.c: 60:     LATA = 0x00;
  5116  01BC  0020               	movlb	0	; select bank0
  5117  01BD  0196               	clrf	22	;volatile
  5118                           
  5119                           ;mcc_generated_files/pin_manager.c: 61:     LATB = 0x00;
  5120  01BE  0197               	clrf	23	;volatile
  5121                           
  5122                           ;mcc_generated_files/pin_manager.c: 62:     LATC = 0x00;
  5123  01BF  0198               	clrf	24	;volatile
  5124  01C0                     l1218:
  5125                           
  5126                           ;mcc_generated_files/pin_manager.c: 67:     TRISA = 0xF0;
  5127  01C0  30F0               	movlw	240
  5128  01C1  0091               	movwf	17	;volatile
  5129  01C2                     l1220:
  5130                           
  5131                           ;mcc_generated_files/pin_manager.c: 68:     TRISB = 0xFF;
  5132  01C2  30FF               	movlw	255
  5133  01C3  0092               	movwf	18	;volatile
  5134  01C4                     l1222:
  5135                           
  5136                           ;mcc_generated_files/pin_manager.c: 69:     TRISC = 0xFE;
  5137  01C4  30FE               	movlw	254
  5138  01C5  0093               	movwf	19	;volatile
  5139  01C6                     l1224:
  5140                           
  5141                           ;mcc_generated_files/pin_manager.c: 74:     ANSELC = 0xFC;
  5142  01C6  30FC               	movlw	252
  5143  01C7  003E               	movlb	30	; select bank30
  5144  01C8  00CE               	movwf	78	;volatile
  5145  01C9                     l1226:
  5146                           
  5147                           ;mcc_generated_files/pin_manager.c: 75:     ANSELB = 0xFF;
  5148  01C9  30FF               	movlw	255
  5149  01CA  00C3               	movwf	67	;volatile
  5150  01CB                     l1228:
  5151                           
  5152                           ;mcc_generated_files/pin_manager.c: 76:     ANSELA = 0xF0;
  5153  01CB  30F0               	movlw	240
  5154  01CC  00B8               	movwf	56	;volatile
  5155                           
  5156                           ;mcc_generated_files/pin_manager.c: 81:     WPUE = 0x00;
  5157  01CD  01E5               	clrf	101	;volatile
  5158                           
  5159                           ;mcc_generated_files/pin_manager.c: 82:     WPUB = 0x00;
  5160  01CE  01C4               	clrf	68	;volatile
  5161                           
  5162                           ;mcc_generated_files/pin_manager.c: 83:     WPUA = 0x00;
  5163  01CF  01B9               	clrf	57	;volatile
  5164                           
  5165                           ;mcc_generated_files/pin_manager.c: 84:     WPUC = 0x00;
  5166  01D0  01CF               	clrf	79	;volatile
  5167                           
  5168                           ;mcc_generated_files/pin_manager.c: 89:     ODCONA = 0x00;
  5169  01D1  01BA               	clrf	58	;volatile
  5170                           
  5171                           ;mcc_generated_files/pin_manager.c: 90:     ODCONB = 0x00;
  5172  01D2  01C5               	clrf	69	;volatile
  5173                           
  5174                           ;mcc_generated_files/pin_manager.c: 91:     ODCONC = 0x00;
  5175  01D3  01D0               	clrf	80	;volatile
  5176  01D4                     l1230:
  5177                           
  5178                           ;mcc_generated_files/pin_manager.c: 96:     SLRCONA = 0xFF;
  5179  01D4  30FF               	movlw	255
  5180  01D5  00BB               	movwf	59	;volatile
  5181  01D6                     l1232:
  5182                           
  5183                           ;mcc_generated_files/pin_manager.c: 97:     SLRCONB = 0xFF;
  5184  01D6  30FF               	movlw	255
  5185  01D7  00C6               	movwf	70	;volatile
  5186  01D8                     l1234:
  5187                           
  5188                           ;mcc_generated_files/pin_manager.c: 98:     SLRCONC = 0xFF;
  5189  01D8  30FF               	movlw	255
  5190  01D9  00D1               	movwf	81	;volatile
  5191  01DA                     l1236:
  5192                           
  5193                           ;mcc_generated_files/pin_manager.c: 103:     INLVLA = 0xFF;
  5194  01DA  30FF               	movlw	255
  5195  01DB  00BC               	movwf	60	;volatile
  5196  01DC                     l1238:
  5197                           
  5198                           ;mcc_generated_files/pin_manager.c: 104:     INLVLB = 0xFF;
  5199  01DC  30FF               	movlw	255
  5200  01DD  00C7               	movwf	71	;volatile
  5201  01DE                     l1240:
  5202                           
  5203                           ;mcc_generated_files/pin_manager.c: 105:     INLVLC = 0xFF;
  5204  01DE  30FF               	movlw	255
  5205  01DF  00D2               	movwf	82	;volatile
  5206  01E0                     l1242:
  5207                           
  5208                           ;mcc_generated_files/pin_manager.c: 106:     INLVLE = 0x08;
  5209  01E0  3008               	movlw	8
  5210  01E1  00E8               	movwf	104	;volatile
  5211  01E2                     l1244:
  5212                           
  5213                           ;mcc_generated_files/pin_manager.c: 115:     RC0PPS = 0x10;
  5214  01E2  3010               	movlw	16
  5215  01E3  00A0               	movwf	32	;volatile
  5216  01E4                     l1246:
  5217                           
  5218                           ;mcc_generated_files/pin_manager.c: 116:     RXPPS = 0x11;
  5219  01E4  3011               	movlw	17
  5220  01E5  003D               	movlb	29	; select bank29
  5221  01E6  00CB               	movwf	75	;volatile
  5222  01E7                     l77:
  5223  01E7  0008               	return
  5224  01E8                     __end_of_PIN_MANAGER_Initialize:
  5225                           
  5226                           	psect	text10
  5227  02BB                     __ptext10:	
  5228 ;; *************** function _OSCILLATOR_Initialize *****************
  5229 ;; Defined at:
  5230 ;;		line 59 in file "mcc_generated_files/mcc.c"
  5231 ;; Parameters:    Size  Location     Type
  5232 ;;		None
  5233 ;; Auto vars:     Size  Location     Type
  5234 ;;		None
  5235 ;; Return value:  Size  Location     Type
  5236 ;;                  1    wreg      void 
  5237 ;; Registers used:
  5238 ;;		wreg, status,2
  5239 ;; Tracked objects:
  5240 ;;		On entry : 0/0
  5241 ;;		On exit  : 0/0
  5242 ;;		Unchanged: 0/0
  5243 ;; Data sizes:     COMMON   BANK0   BANK1   BANK2   BANK3   BANK4   BANK5   BANK6   BANK7   BANK8   BANK9  BANK10  BANK1
      +1  BANK12
  5244 ;;      Params:         0       0       0       0       0       0       0       0       0       0       0       0       
      +0       0
  5245 ;;      Locals:         0       0       0       0       0       0       0       0       0       0       0       0       
      +0       0
  5246 ;;      Temps:          0       0       0       0       0       0       0       0       0       0       0       0       
      +0       0
  5247 ;;      Totals:         0       0       0       0       0       0       0       0       0       0       0       0       
      +0       0
  5248 ;;Total ram usage:        0 bytes
  5249 ;; Hardware stack levels used: 1
  5250 ;; Hardware stack levels required when called: 4
  5251 ;; This function calls:
  5252 ;;		Nothing
  5253 ;; This function is called by:
  5254 ;;		_SYSTEM_Initialize
  5255 ;; This function uses a non-reentrant model
  5256 ;;
  5257                           
  5258                           
  5259                           ;psect for function _OSCILLATOR_Initialize
  5260  02BB                     _OSCILLATOR_Initialize:
  5261  02BB                     l1250:	
  5262                           ;incstack = 0
  5263                           ; Regs used in _OSCILLATOR_Initialize: [wreg+status,2]
  5264                           
  5265                           
  5266                           ;mcc_generated_files/mcc.c: 62:     OSCCON1 = 0x60;
  5267  02BB  3060               	movlw	96
  5268  02BC  0031               	movlb	17	; select bank17
  5269  02BD  008D               	movwf	13	;volatile
  5270  02BE                     l1252:
  5271                           
  5272                           ;mcc_generated_files/mcc.c: 64:     OSCCON3 = 0x00;
  5273  02BE  018F               	clrf	15	;volatile
  5274  02BF                     l1254:
  5275                           
  5276                           ;mcc_generated_files/mcc.c: 66:     OSCEN = 0x00;
  5277  02BF  0191               	clrf	17	;volatile
  5278                           
  5279                           ;mcc_generated_files/mcc.c: 68:     OSCFRQ = 0x06;
  5280  02C0  3006               	movlw	6
  5281  02C1  0093               	movwf	19	;volatile
  5282  02C2                     l1256:
  5283                           
  5284                           ;mcc_generated_files/mcc.c: 70:     OSCTUNE = 0x00;
  5285  02C2  0192               	clrf	18	;volatile
  5286  02C3                     l118:
  5287  02C3  0008               	return
  5288  02C4                     __end_of_OSCILLATOR_Initialize:
  5289                           
  5290                           	psect	text11
  5291  0104                     __ptext11:	
  5292 ;; *************** function _EUSART_Initialize *****************
  5293 ;; Defined at:
  5294 ;;		line 88 in file "mcc_generated_files/eusart.c"
  5295 ;; Parameters:    Size  Location     Type
  5296 ;;		None
  5297 ;; Auto vars:     Size  Location     Type
  5298 ;;		None
  5299 ;; Return value:  Size  Location     Type
  5300 ;;                  1    wreg      void 
  5301 ;; Registers used:
  5302 ;;		wreg, status,2, status,0, pclath, cstack
  5303 ;; Tracked objects:
  5304 ;;		On entry : 0/0
  5305 ;;		On exit  : 0/0
  5306 ;;		Unchanged: 0/0
  5307 ;; Data sizes:     COMMON   BANK0   BANK1   BANK2   BANK3   BANK4   BANK5   BANK6   BANK7   BANK8   BANK9  BANK10  BANK1
      +1  BANK12
  5308 ;;      Params:         0       0       0       0       0       0       0       0       0       0       0       0       
      +0       0
  5309 ;;      Locals:         0       0       0       0       0       0       0       0       0       0       0       0       
      +0       0
  5310 ;;      Temps:          1       0       0       0       0       0       0       0       0       0       0       0       
      +0       0
  5311 ;;      Totals:         1       0       0       0       0       0       0       0       0       0       0       0       
      +0       0
  5312 ;;Total ram usage:        1 bytes
  5313 ;; Hardware stack levels used: 1
  5314 ;; Hardware stack levels required when called: 5
  5315 ;; This function calls:
  5316 ;;		_EUSART_SetErrorHandler
  5317 ;;		_EUSART_SetFramingErrorHandler
  5318 ;;		_EUSART_SetOverrunErrorHandler
  5319 ;;		_EUSART_SetRxInterruptHandler
  5320 ;;		_EUSART_SetTxInterruptHandler
  5321 ;; This function is called by:
  5322 ;;		_SYSTEM_Initialize
  5323 ;; This function uses a non-reentrant model
  5324 ;;
  5325                           
  5326                           
  5327                           ;psect for function _EUSART_Initialize
  5328  0104                     _EUSART_Initialize:
  5329  0104                     l1600:	
  5330                           ;incstack = 0
  5331                           ; Regs used in _EUSART_Initialize: [wreg+status,2+status,0+pclath+cstack]
  5332                           
  5333                           
  5334                           ;mcc_generated_files/eusart.c: 91:     PIE3bits.RCIE = 0;
  5335  0104  002E               	movlb	14	; select bank14
  5336  0105  1299               	bcf	25,5	;volatile
  5337  0106                     l1602:
  5338                           
  5339                           ;mcc_generated_files/eusart.c: 92:     EUSART_SetRxInterruptHandler(EUSART_Receive_ISR);
  5340  0106  3083               	movlw	low _EUSART_Receive_ISR
  5341  0107  00F1               	movwf	EUSART_SetRxInterruptHandler@interruptHandler
  5342  0108  3001               	movlw	high _EUSART_Receive_ISR
  5343  0109  00F2               	movwf	EUSART_SetRxInterruptHandler@interruptHandler+1
  5344  010A  3182  22DE  3181   	fcall	_EUSART_SetRxInterruptHandler
  5345  010D                     l1604:
  5346                           
  5347                           ;mcc_generated_files/eusart.c: 93:     PIE3bits.TXIE = 0;
  5348  010D  002E               	movlb	14	; select bank14
  5349  010E  1219               	bcf	25,4	;volatile
  5350                           
  5351                           ;mcc_generated_files/eusart.c: 94:     EUSART_SetTxInterruptHandler(EUSART_Transmit_ISR)
      +                          ;
  5352  010F  303A               	movlw	low _EUSART_Transmit_ISR
  5353  0110  00F1               	movwf	EUSART_SetTxInterruptHandler@interruptHandler
  5354  0111  3002               	movlw	high _EUSART_Transmit_ISR
  5355  0112  00F2               	movwf	EUSART_SetTxInterruptHandler@interruptHandler+1
  5356  0113  3182  22D8  3181   	fcall	_EUSART_SetTxInterruptHandler
  5357  0116                     l1606:
  5358                           
  5359                           ;mcc_generated_files/eusart.c: 98:     BAUD1CON = 0x08;
  5360  0116  3008               	movlw	8
  5361  0117  0022               	movlb	2	; select bank2
  5362  0118  009F               	movwf	31	;volatile
  5363  0119                     l1608:
  5364                           
  5365                           ;mcc_generated_files/eusart.c: 101:     RC1STA = 0x90;
  5366  0119  3090               	movlw	144
  5367  011A  009D               	movwf	29	;volatile
  5368  011B                     l1610:
  5369                           
  5370                           ;mcc_generated_files/eusart.c: 104:     TX1STA = 0x24;
  5371  011B  3024               	movlw	36
  5372  011C  009E               	movwf	30	;volatile
  5373  011D                     l1612:
  5374                           
  5375                           ;mcc_generated_files/eusart.c: 107:     SP1BRGL = 0x40;
  5376  011D  3040               	movlw	64
  5377  011E  009B               	movwf	27	;volatile
  5378  011F                     l1614:
  5379                           
  5380                           ;mcc_generated_files/eusart.c: 110:     SP1BRGH = 0x03;
  5381  011F  3003               	movlw	3
  5382  0120  009C               	movwf	28	;volatile
  5383  0121                     l1616:
  5384                           
  5385                           ;mcc_generated_files/eusart.c: 113:     EUSART_SetFramingErrorHandler(EUSART_DefaultFram
      +                          ingErrorHandler);
  5386  0121  30FE               	movlw	low _EUSART_DefaultFramingErrorHandler
  5387  0122  00F1               	movwf	EUSART_SetFramingErrorHandler@interruptHandler
  5388  0123  3002               	movlw	high _EUSART_DefaultFramingErrorHandler
  5389  0124  00F2               	movwf	EUSART_SetFramingErrorHandler@interruptHandler+1
  5390  0125  3182  22EA  3181   	fcall	_EUSART_SetFramingErrorHandler
  5391  0128                     l1618:
  5392                           
  5393                           ;mcc_generated_files/eusart.c: 114:     EUSART_SetOverrunErrorHandler(EUSART_DefaultOver
      +                          runErrorHandler);
  5394  0128  30F6               	movlw	low _EUSART_DefaultOverrunErrorHandler
  5395  0129  00F1               	movwf	EUSART_SetOverrunErrorHandler@interruptHandler
  5396  012A  3002               	movlw	high _EUSART_DefaultOverrunErrorHandler
  5397  012B  00F2               	movwf	EUSART_SetOverrunErrorHandler@interruptHandler+1
  5398  012C  3182  22E4  3181   	fcall	_EUSART_SetOverrunErrorHandler
  5399  012F                     l1620:
  5400                           
  5401                           ;mcc_generated_files/eusart.c: 115:     EUSART_SetErrorHandler(EUSART_DefaultErrorHandle
      +                          r);
  5402  012F  30FA               	movlw	low _EUSART_DefaultErrorHandler
  5403  0130  00F1               	movwf	EUSART_SetErrorHandler@interruptHandler
  5404  0131  3002               	movlw	high _EUSART_DefaultErrorHandler
  5405  0132  00F2               	movwf	EUSART_SetErrorHandler@interruptHandler+1
  5406  0133  3182  22F0  3181   	fcall	_EUSART_SetErrorHandler
  5407  0136                     l1622:
  5408                           
  5409                           ;mcc_generated_files/eusart.c: 117:     eusartRxLastError.status = 0;
  5410  0136  0020               	movlb	0	; select bank0
  5411  0137  01C0               	clrf	_eusartRxLastError	;volatile
  5412  0138                     l1624:
  5413                           
  5414                           ;mcc_generated_files/eusart.c: 120:     eusartTxHead = 0;
  5415  0138  01C4               	clrf	_eusartTxHead	;volatile
  5416  0139                     l1626:
  5417                           
  5418                           ;mcc_generated_files/eusart.c: 121:     eusartTxTail = 0;
  5419  0139  01C3               	clrf	_eusartTxTail	;volatile
  5420  013A                     l1628:
  5421                           
  5422                           ;mcc_generated_files/eusart.c: 122:     eusartTxBufferRemaining = sizeof(eusartTxBuffer)
      +                          ;
  5423  013A  3008               	movlw	8
  5424  013B  00F3               	movwf	??_EUSART_Initialize
  5425  013C  0873               	movf	??_EUSART_Initialize,w
  5426  013D  00E5               	movwf	_eusartTxBufferRemaining	;volatile
  5427                           
  5428                           ;mcc_generated_files/eusart.c: 124:     eusartRxHead = 0;
  5429  013E  01FC               	clrf	_eusartRxHead	;volatile
  5430                           
  5431                           ;mcc_generated_files/eusart.c: 125:     eusartRxTail = 0;
  5432  013F  01C2               	clrf	_eusartRxTail	;volatile
  5433                           
  5434                           ;mcc_generated_files/eusart.c: 126:     eusartRxCount = 0;
  5435  0140  01C1               	clrf	_eusartRxCount	;volatile
  5436  0141                     l1630:
  5437                           
  5438                           ;mcc_generated_files/eusart.c: 129:     PIE3bits.RCIE = 1;
  5439  0141  002E               	movlb	14	; select bank14
  5440  0142  1699               	bsf	25,5	;volatile
  5441  0143                     l352:
  5442  0143  0008               	return
  5443  0144                     __end_of_EUSART_Initialize:
  5444                           
  5445                           	psect	text12
  5446  02D8                     __ptext12:	
  5447 ;; *************** function _EUSART_SetTxInterruptHandler *****************
  5448 ;; Defined at:
  5449 ;;		line 285 in file "mcc_generated_files/eusart.c"
  5450 ;; Parameters:    Size  Location     Type
  5451 ;;  interruptHan    2    1[COMMON] PTR FTN()void 
  5452 ;;		 -> EUSART_Transmit_ISR(1), 
  5453 ;; Auto vars:     Size  Location     Type
  5454 ;;		None
  5455 ;; Return value:  Size  Location     Type
  5456 ;;                  1    wreg      void 
  5457 ;; Registers used:
  5458 ;;		wreg
  5459 ;; Tracked objects:
  5460 ;;		On entry : 0/0
  5461 ;;		On exit  : 0/0
  5462 ;;		Unchanged: 0/0
  5463 ;; Data sizes:     COMMON   BANK0   BANK1   BANK2   BANK3   BANK4   BANK5   BANK6   BANK7   BANK8   BANK9  BANK10  BANK1
      +1  BANK12
  5464 ;;      Params:         2       0       0       0       0       0       0       0       0       0       0       0       
      +0       0
  5465 ;;      Locals:         0       0       0       0       0       0       0       0       0       0       0       0       
      +0       0
  5466 ;;      Temps:          0       0       0       0       0       0       0       0       0       0       0       0       
      +0       0
  5467 ;;      Totals:         2       0       0       0       0       0       0       0       0       0       0       0       
      +0       0
  5468 ;;Total ram usage:        2 bytes
  5469 ;; Hardware stack levels used: 1
  5470 ;; Hardware stack levels required when called: 4
  5471 ;; This function calls:
  5472 ;;		Nothing
  5473 ;; This function is called by:
  5474 ;;		_EUSART_Initialize
  5475 ;; This function uses a non-reentrant model
  5476 ;;
  5477                           
  5478                           
  5479                           ;psect for function _EUSART_SetTxInterruptHandler
  5480  02D8                     _EUSART_SetTxInterruptHandler:
  5481  02D8                     l1550:	
  5482                           ;incstack = 0
  5483                           ; Regs used in _EUSART_SetTxInterruptHandler: [wreg]
  5484                           
  5485                           
  5486                           ;mcc_generated_files/eusart.c: 286:     EUSART_TxDefaultInterruptHandler = interruptHand
      +                          ler;
  5487  02D8  0872               	movf	EUSART_SetTxInterruptHandler@interruptHandler+1,w
  5488  02D9  0020               	movlb	0	; select bank0
  5489  02DA  00E4               	movwf	_EUSART_TxDefaultInterruptHandler+1
  5490  02DB  0871               	movf	EUSART_SetTxInterruptHandler@interruptHandler,w
  5491  02DC  00E3               	movwf	_EUSART_TxDefaultInterruptHandler
  5492  02DD                     l424:
  5493  02DD  0008               	return
  5494  02DE                     __end_of_EUSART_SetTxInterruptHandler:
  5495                           
  5496                           	psect	text13
  5497  02DE                     __ptext13:	
  5498 ;; *************** function _EUSART_SetRxInterruptHandler *****************
  5499 ;; Defined at:
  5500 ;;		line 289 in file "mcc_generated_files/eusart.c"
  5501 ;; Parameters:    Size  Location     Type
  5502 ;;  interruptHan    2    1[COMMON] PTR FTN()void 
  5503 ;;		 -> EUSART_Receive_ISR(1), 
  5504 ;; Auto vars:     Size  Location     Type
  5505 ;;		None
  5506 ;; Return value:  Size  Location     Type
  5507 ;;                  1    wreg      void 
  5508 ;; Registers used:
  5509 ;;		wreg
  5510 ;; Tracked objects:
  5511 ;;		On entry : 0/0
  5512 ;;		On exit  : 0/0
  5513 ;;		Unchanged: 0/0
  5514 ;; Data sizes:     COMMON   BANK0   BANK1   BANK2   BANK3   BANK4   BANK5   BANK6   BANK7   BANK8   BANK9  BANK10  BANK1
      +1  BANK12
  5515 ;;      Params:         2       0       0       0       0       0       0       0       0       0       0       0       
      +0       0
  5516 ;;      Locals:         0       0       0       0       0       0       0       0       0       0       0       0       
      +0       0
  5517 ;;      Temps:          0       0       0       0       0       0       0       0       0       0       0       0       
      +0       0
  5518 ;;      Totals:         2       0       0       0       0       0       0       0       0       0       0       0       
      +0       0
  5519 ;;Total ram usage:        2 bytes
  5520 ;; Hardware stack levels used: 1
  5521 ;; Hardware stack levels required when called: 4
  5522 ;; This function calls:
  5523 ;;		Nothing
  5524 ;; This function is called by:
  5525 ;;		_EUSART_Initialize
  5526 ;; This function uses a non-reentrant model
  5527 ;;
  5528                           
  5529                           
  5530                           ;psect for function _EUSART_SetRxInterruptHandler
  5531  02DE                     _EUSART_SetRxInterruptHandler:
  5532  02DE                     l1548:	
  5533                           ;incstack = 0
  5534                           ; Regs used in _EUSART_SetRxInterruptHandler: [wreg]
  5535                           
  5536                           
  5537                           ;mcc_generated_files/eusart.c: 290:     EUSART_RxDefaultInterruptHandler = interruptHand
      +                          ler;
  5538  02DE  0872               	movf	EUSART_SetRxInterruptHandler@interruptHandler+1,w
  5539  02DF  0020               	movlb	0	; select bank0
  5540  02E0  00E2               	movwf	_EUSART_RxDefaultInterruptHandler+1
  5541  02E1  0871               	movf	EUSART_SetRxInterruptHandler@interruptHandler,w
  5542  02E2  00E1               	movwf	_EUSART_RxDefaultInterruptHandler
  5543  02E3                     l427:
  5544  02E3  0008               	return
  5545  02E4                     __end_of_EUSART_SetRxInterruptHandler:
  5546                           
  5547                           	psect	text14
  5548  02E4                     __ptext14:	
  5549 ;; *************** function _EUSART_SetOverrunErrorHandler *****************
  5550 ;; Defined at:
  5551 ;;		line 277 in file "mcc_generated_files/eusart.c"
  5552 ;; Parameters:    Size  Location     Type
  5553 ;;  interruptHan    2    1[COMMON] PTR FTN()void 
  5554 ;;		 -> EUSART_DefaultOverrunErrorHandler(1), 
  5555 ;; Auto vars:     Size  Location     Type
  5556 ;;		None
  5557 ;; Return value:  Size  Location     Type
  5558 ;;                  1    wreg      void 
  5559 ;; Registers used:
  5560 ;;		wreg
  5561 ;; Tracked objects:
  5562 ;;		On entry : 0/0
  5563 ;;		On exit  : 0/0
  5564 ;;		Unchanged: 0/0
  5565 ;; Data sizes:     COMMON   BANK0   BANK1   BANK2   BANK3   BANK4   BANK5   BANK6   BANK7   BANK8   BANK9  BANK10  BANK1
      +1  BANK12
  5566 ;;      Params:         2       0       0       0       0       0       0       0       0       0       0       0       
      +0       0
  5567 ;;      Locals:         0       0       0       0       0       0       0       0       0       0       0       0       
      +0       0
  5568 ;;      Temps:          0       0       0       0       0       0       0       0       0       0       0       0       
      +0       0
  5569 ;;      Totals:         2       0       0       0       0       0       0       0       0       0       0       0       
      +0       0
  5570 ;;Total ram usage:        2 bytes
  5571 ;; Hardware stack levels used: 1
  5572 ;; Hardware stack levels required when called: 4
  5573 ;; This function calls:
  5574 ;;		Nothing
  5575 ;; This function is called by:
  5576 ;;		_EUSART_Initialize
  5577 ;; This function uses a non-reentrant model
  5578 ;;
  5579                           
  5580                           
  5581                           ;psect for function _EUSART_SetOverrunErrorHandler
  5582  02E4                     _EUSART_SetOverrunErrorHandler:
  5583  02E4                     l1554:	
  5584                           ;incstack = 0
  5585                           ; Regs used in _EUSART_SetOverrunErrorHandler: [wreg]
  5586                           
  5587                           
  5588                           ;mcc_generated_files/eusart.c: 278:     EUSART_OverrunErrorHandler = interruptHandler;
  5589  02E4  0872               	movf	EUSART_SetOverrunErrorHandler@interruptHandler+1,w
  5590  02E5  0020               	movlb	0	; select bank0
  5591  02E6  00DE               	movwf	_EUSART_OverrunErrorHandler+1
  5592  02E7  0871               	movf	EUSART_SetOverrunErrorHandler@interruptHandler,w
  5593  02E8  00DD               	movwf	_EUSART_OverrunErrorHandler
  5594  02E9                     l418:
  5595  02E9  0008               	return
  5596  02EA                     __end_of_EUSART_SetOverrunErrorHandler:
  5597                           
  5598                           	psect	text15
  5599  02EA                     __ptext15:	
  5600 ;; *************** function _EUSART_SetFramingErrorHandler *****************
  5601 ;; Defined at:
  5602 ;;		line 273 in file "mcc_generated_files/eusart.c"
  5603 ;; Parameters:    Size  Location     Type
  5604 ;;  interruptHan    2    1[COMMON] PTR FTN()void 
  5605 ;;		 -> EUSART_DefaultFramingErrorHandler(1), 
  5606 ;; Auto vars:     Size  Location     Type
  5607 ;;		None
  5608 ;; Return value:  Size  Location     Type
  5609 ;;                  1    wreg      void 
  5610 ;; Registers used:
  5611 ;;		wreg
  5612 ;; Tracked objects:
  5613 ;;		On entry : 0/0
  5614 ;;		On exit  : 0/0
  5615 ;;		Unchanged: 0/0
  5616 ;; Data sizes:     COMMON   BANK0   BANK1   BANK2   BANK3   BANK4   BANK5   BANK6   BANK7   BANK8   BANK9  BANK10  BANK1
      +1  BANK12
  5617 ;;      Params:         2       0       0       0       0       0       0       0       0       0       0       0       
      +0       0
  5618 ;;      Locals:         0       0       0       0       0       0       0       0       0       0       0       0       
      +0       0
  5619 ;;      Temps:          0       0       0       0       0       0       0       0       0       0       0       0       
      +0       0
  5620 ;;      Totals:         2       0       0       0       0       0       0       0       0       0       0       0       
      +0       0
  5621 ;;Total ram usage:        2 bytes
  5622 ;; Hardware stack levels used: 1
  5623 ;; Hardware stack levels required when called: 4
  5624 ;; This function calls:
  5625 ;;		Nothing
  5626 ;; This function is called by:
  5627 ;;		_EUSART_Initialize
  5628 ;; This function uses a non-reentrant model
  5629 ;;
  5630                           
  5631                           
  5632                           ;psect for function _EUSART_SetFramingErrorHandler
  5633  02EA                     _EUSART_SetFramingErrorHandler:
  5634  02EA                     l1552:	
  5635                           ;incstack = 0
  5636                           ; Regs used in _EUSART_SetFramingErrorHandler: [wreg]
  5637                           
  5638                           
  5639                           ;mcc_generated_files/eusart.c: 274:     EUSART_FramingErrorHandler = interruptHandler;
  5640  02EA  0872               	movf	EUSART_SetFramingErrorHandler@interruptHandler+1,w
  5641  02EB  0020               	movlb	0	; select bank0
  5642  02EC  00E0               	movwf	_EUSART_FramingErrorHandler+1
  5643  02ED  0871               	movf	EUSART_SetFramingErrorHandler@interruptHandler,w
  5644  02EE  00DF               	movwf	_EUSART_FramingErrorHandler
  5645  02EF                     l415:
  5646  02EF  0008               	return
  5647  02F0                     __end_of_EUSART_SetFramingErrorHandler:
  5648                           
  5649                           	psect	text16
  5650  02F0                     __ptext16:	
  5651 ;; *************** function _EUSART_SetErrorHandler *****************
  5652 ;; Defined at:
  5653 ;;		line 281 in file "mcc_generated_files/eusart.c"
  5654 ;; Parameters:    Size  Location     Type
  5655 ;;  interruptHan    2    1[COMMON] PTR FTN()void 
  5656 ;;		 -> EUSART_DefaultErrorHandler(1), 
  5657 ;; Auto vars:     Size  Location     Type
  5658 ;;		None
  5659 ;; Return value:  Size  Location     Type
  5660 ;;                  1    wreg      void 
  5661 ;; Registers used:
  5662 ;;		wreg
  5663 ;; Tracked objects:
  5664 ;;		On entry : 0/0
  5665 ;;		On exit  : 0/0
  5666 ;;		Unchanged: 0/0
  5667 ;; Data sizes:     COMMON   BANK0   BANK1   BANK2   BANK3   BANK4   BANK5   BANK6   BANK7   BANK8   BANK9  BANK10  BANK1
      +1  BANK12
  5668 ;;      Params:         2       0       0       0       0       0       0       0       0       0       0       0       
      +0       0
  5669 ;;      Locals:         0       0       0       0       0       0       0       0       0       0       0       0       
      +0       0
  5670 ;;      Temps:          0       0       0       0       0       0       0       0       0       0       0       0       
      +0       0
  5671 ;;      Totals:         2       0       0       0       0       0       0       0       0       0       0       0       
      +0       0
  5672 ;;Total ram usage:        2 bytes
  5673 ;; Hardware stack levels used: 1
  5674 ;; Hardware stack levels required when called: 4
  5675 ;; This function calls:
  5676 ;;		Nothing
  5677 ;; This function is called by:
  5678 ;;		_EUSART_Initialize
  5679 ;; This function uses a non-reentrant model
  5680 ;;
  5681                           
  5682                           
  5683                           ;psect for function _EUSART_SetErrorHandler
  5684  02F0                     _EUSART_SetErrorHandler:
  5685  02F0                     l1556:	
  5686                           ;incstack = 0
  5687                           ; Regs used in _EUSART_SetErrorHandler: [wreg]
  5688                           
  5689                           
  5690                           ;mcc_generated_files/eusart.c: 282:     EUSART_ErrorHandler = interruptHandler;
  5691  02F0  0872               	movf	EUSART_SetErrorHandler@interruptHandler+1,w
  5692  02F1  0020               	movlb	0	; select bank0
  5693  02F2  00DC               	movwf	_EUSART_ErrorHandler+1
  5694  02F3  0871               	movf	EUSART_SetErrorHandler@interruptHandler,w
  5695  02F4  00DB               	movwf	_EUSART_ErrorHandler
  5696  02F5                     l421:
  5697  02F5  0008               	return
  5698  02F6                     __end_of_EUSART_SetErrorHandler:
  5699                           
  5700                           	psect	text17
  5701  0276                     __ptext17:	
  5702 ;; *************** function _ADCC_Initialize *****************
  5703 ;; Defined at:
  5704 ;;		line 63 in file "mcc_generated_files/adcc.c"
  5705 ;; Parameters:    Size  Location     Type
  5706 ;;		None
  5707 ;; Auto vars:     Size  Location     Type
  5708 ;;		None
  5709 ;; Return value:  Size  Location     Type
  5710 ;;                  1    wreg      void 
  5711 ;; Registers used:
  5712 ;;		wreg, status,2
  5713 ;; Tracked objects:
  5714 ;;		On entry : 0/0
  5715 ;;		On exit  : 0/0
  5716 ;;		Unchanged: 0/0
  5717 ;; Data sizes:     COMMON   BANK0   BANK1   BANK2   BANK3   BANK4   BANK5   BANK6   BANK7   BANK8   BANK9  BANK10  BANK1
      +1  BANK12
  5718 ;;      Params:         0       0       0       0       0       0       0       0       0       0       0       0       
      +0       0
  5719 ;;      Locals:         0       0       0       0       0       0       0       0       0       0       0       0       
      +0       0
  5720 ;;      Temps:          0       0       0       0       0       0       0       0       0       0       0       0       
      +0       0
  5721 ;;      Totals:         0       0       0       0       0       0       0       0       0       0       0       0       
      +0       0
  5722 ;;Total ram usage:        0 bytes
  5723 ;; Hardware stack levels used: 1
  5724 ;; Hardware stack levels required when called: 4
  5725 ;; This function calls:
  5726 ;;		Nothing
  5727 ;; This function is called by:
  5728 ;;		_SYSTEM_Initialize
  5729 ;; This function uses a non-reentrant model
  5730 ;;
  5731                           
  5732                           
  5733                           ;psect for function _ADCC_Initialize
  5734  0276                     _ADCC_Initialize:
  5735  0276                     l1258:	
  5736                           ;incstack = 0
  5737                           ; Regs used in _ADCC_Initialize: [wreg+status,2]
  5738                           
  5739                           
  5740                           ;mcc_generated_files/adcc.c: 67:     ADLTHL = 0x00;
  5741  0276  0022               	movlb	2	; select bank2
  5742  0277  018E               	clrf	14	;volatile
  5743                           
  5744                           ;mcc_generated_files/adcc.c: 69:     ADLTHH = 0x00;
  5745  0278  018F               	clrf	15	;volatile
  5746                           
  5747                           ;mcc_generated_files/adcc.c: 71:     ADUTHL = 0x00;
  5748  0279  0190               	clrf	16	;volatile
  5749                           
  5750                           ;mcc_generated_files/adcc.c: 73:     ADUTHH = 0x00;
  5751  027A  0191               	clrf	17	;volatile
  5752                           
  5753                           ;mcc_generated_files/adcc.c: 75:     ADSTPTL = 0x00;
  5754  027B  0192               	clrf	18	;volatile
  5755                           
  5756                           ;mcc_generated_files/adcc.c: 77:     ADSTPTH = 0x00;
  5757  027C  0193               	clrf	19	;volatile
  5758                           
  5759                           ;mcc_generated_files/adcc.c: 79:     ADRPT = 0x00;
  5760  027D  018D               	clrf	13	;volatile
  5761                           
  5762                           ;mcc_generated_files/adcc.c: 81:     ADPCH = 0x00;
  5763  027E  0021               	movlb	1	; select bank1
  5764  027F  019E               	clrf	30	;volatile
  5765                           
  5766                           ;mcc_generated_files/adcc.c: 83:     ADCAP = 0x00;
  5767  0280  019B               	clrf	27	;volatile
  5768                           
  5769                           ;mcc_generated_files/adcc.c: 85:     ADPRE = 0x00;
  5770  0281  019C               	clrf	28	;volatile
  5771                           
  5772                           ;mcc_generated_files/adcc.c: 87:     ADCON1 = 0x00;
  5773  0282  0194               	clrf	20	;volatile
  5774                           
  5775                           ;mcc_generated_files/adcc.c: 89:     ADCON2 = 0x00;
  5776  0283  0195               	clrf	21	;volatile
  5777                           
  5778                           ;mcc_generated_files/adcc.c: 91:     ADCON3 = 0x00;
  5779  0284  0196               	clrf	22	;volatile
  5780                           
  5781                           ;mcc_generated_files/adcc.c: 93:     ADSTAT = 0x00;
  5782  0285  0197               	clrf	23	;volatile
  5783                           
  5784                           ;mcc_generated_files/adcc.c: 95:     ADREF = 0x00;
  5785  0286  019A               	clrf	26	;volatile
  5786                           
  5787                           ;mcc_generated_files/adcc.c: 97:     ADACT = 0x00;
  5788  0287  0199               	clrf	25	;volatile
  5789  0288                     l1260:
  5790                           
  5791                           ;mcc_generated_files/adcc.c: 99:     ADCLK = 0x0F;
  5792  0288  300F               	movlw	15
  5793  0289  0098               	movwf	24	;volatile
  5794  028A                     l1262:
  5795                           
  5796                           ;mcc_generated_files/adcc.c: 101:     ADCON0 = 0x84;
  5797  028A  3084               	movlw	132
  5798  028B  0093               	movwf	19	;volatile
  5799                           
  5800                           ;mcc_generated_files/adcc.c: 103:     ADACQ = 0x00;
  5801  028C  019D               	clrf	29	;volatile
  5802  028D                     l196:
  5803  028D  0008               	return
  5804  028E                     __end_of_ADCC_Initialize:
  5805                           
  5806                           	psect	intentry
  5807  0004                     __pintentry:	
  5808 ;; *************** function _INTERRUPT_InterruptManager *****************
  5809 ;; Defined at:
  5810 ;;		line 52 in file "mcc_generated_files/interrupt_manager.c"
  5811 ;; Parameters:    Size  Location     Type
  5812 ;;		None
  5813 ;; Auto vars:     Size  Location     Type
  5814 ;;		None
  5815 ;; Return value:  Size  Location     Type
  5816 ;;                  1    wreg      void 
  5817 ;; Registers used:
  5818 ;;		wreg, fsr1l, fsr1h, status,2, status,0, pclath, cstack
  5819 ;; Tracked objects:
  5820 ;;		On entry : 0/0
  5821 ;;		On exit  : 0/0
  5822 ;;		Unchanged: 0/0
  5823 ;; Data sizes:     COMMON   BANK0   BANK1   BANK2   BANK3   BANK4   BANK5   BANK6   BANK7   BANK8   BANK9  BANK10  BANK1
      +1  BANK12
  5824 ;;      Params:         0       0       0       0       0       0       0       0       0       0       0       0       
      +0       0
  5825 ;;      Locals:         0       0       0       0       0       0       0       0       0       0       0       0       
      +0       0
  5826 ;;      Temps:          0       0       0       0       0       0       0       0       0       0       0       0       
      +0       0
  5827 ;;      Totals:         0       0       0       0       0       0       0       0       0       0       0       0       
      +0       0
  5828 ;;Total ram usage:        0 bytes
  5829 ;; Hardware stack levels used: 1
  5830 ;; Hardware stack levels required when called: 3
  5831 ;; This function calls:
  5832 ;;		Absolute function
  5833 ;;		_EUSART_Receive_ISR
  5834 ;;		_EUSART_Transmit_ISR
  5835 ;; This function is called by:
  5836 ;;		Interrupt level 1
  5837 ;; This function uses a non-reentrant model
  5838 ;;
  5839                           
  5840  0004                     _INTERRUPT_InterruptManager:
  5841                           
  5842                           ;incstack = 0
  5843  0004  147E               	bsf	int$flags,0	;set compiler interrupt flag (level 1)
  5844                           
  5845                           ; Regs used in _INTERRUPT_InterruptManager: [wreg+fsr1l+fsr1h+status,2+status,0+pclath+c
      +                          stack]
  5846  0005  3180               	pagesel	$
  5847  0006                     i1l1736:
  5848                           
  5849                           ;mcc_generated_files/interrupt_manager.c: 55:     if(INTCONbits.PEIE == 1)
  5850  0006  1F0B               	btfss	11,6	;volatile
  5851  0007  2809               	goto	u59_21
  5852  0008  280A               	goto	u59_20
  5853  0009                     u59_21:
  5854  0009  2829               	goto	i1l448
  5855  000A                     u59_20:
  5856  000A                     i1l1738:
  5857                           
  5858                           ;mcc_generated_files/interrupt_manager.c: 56:     {;mcc_generated_files/interrupt_manage
      +                          r.c: 57:         if(PIE3bits.TXIE == 1 && PIR3bits.TXIF == 1)
  5859  000A  002E               	movlb	14	; select bank14
  5860  000B  1E19               	btfss	25,4	;volatile
  5861  000C  280E               	goto	u60_21
  5862  000D  280F               	goto	u60_20
  5863  000E                     u60_21:
  5864  000E  281A               	goto	i1l443
  5865  000F                     u60_20:
  5866  000F                     i1l1740:
  5867  000F  1E0F               	btfss	15,4	;volatile
  5868  0010  2812               	goto	u61_21
  5869  0011  2813               	goto	u61_20
  5870  0012                     u61_21:
  5871  0012  281A               	goto	i1l443
  5872  0013                     u61_20:
  5873  0013                     i1l1742:
  5874                           
  5875                           ;mcc_generated_files/interrupt_manager.c: 58:         {;mcc_generated_files/interrupt_ma
      +                          nager.c: 59:             EUSART_TxDefaultInterruptHandler();
  5876  0013  0020               	movlb	0	; select bank0
  5877  0014  0864               	movf	_EUSART_TxDefaultInterruptHandler+1,w
  5878  0015  008A               	movwf	10
  5879  0016  0863               	movf	_EUSART_TxDefaultInterruptHandler,w
  5880  0017  000A               	callw
  5881  0018  3180               	pagesel	$
  5882                           
  5883                           ;mcc_generated_files/interrupt_manager.c: 60:         }
  5884  0019  2829               	goto	i1l448
  5885  001A                     i1l443:	
  5886                           ;mcc_generated_files/interrupt_manager.c: 61:         else if(PIE3bits.RCIE == 1 && PIR3
      +                          bits.RCIF == 1)
  5887                           
  5888  001A  1E99               	btfss	25,5	;volatile
  5889  001B  281D               	goto	u62_21
  5890  001C  281E               	goto	u62_20
  5891  001D                     u62_21:
  5892  001D  2829               	goto	i1l444
  5893  001E                     u62_20:
  5894  001E                     i1l1744:
  5895  001E  1E8F               	btfss	15,5	;volatile
  5896  001F  2821               	goto	u63_21
  5897  0020  2822               	goto	u63_20
  5898  0021                     u63_21:
  5899  0021  2829               	goto	i1l444
  5900  0022                     u63_20:
  5901  0022                     i1l1746:
  5902                           
  5903                           ;mcc_generated_files/interrupt_manager.c: 62:         {;mcc_generated_files/interrupt_ma
      +                          nager.c: 63:             EUSART_RxDefaultInterruptHandler();
  5904  0022  0020               	movlb	0	; select bank0
  5905  0023  0862               	movf	_EUSART_RxDefaultInterruptHandler+1,w
  5906  0024  008A               	movwf	10
  5907  0025  0861               	movf	_EUSART_RxDefaultInterruptHandler,w
  5908  0026  000A               	callw
  5909  0027  3180               	pagesel	$
  5910                           
  5911                           ;mcc_generated_files/interrupt_manager.c: 64:         }
  5912  0028  2829               	goto	i1l448
  5913  0029                     i1l444:
  5914  0029                     i1l448:	
  5915                           ;mcc_generated_files/interrupt_manager.c: 69:     }
  5916                           
  5917  0029  107E               	bcf	int$flags,0	;clear compiler interrupt flag (level 1)
  5918  002A  0009               	retfie
  5919  002B                     __end_of_INTERRUPT_InterruptManager:
  5920                           
  5921                           	psect	text19
  5922  023A                     __ptext19:	
  5923 ;; *************** function _EUSART_Transmit_ISR *****************
  5924 ;; Defined at:
  5925 ;;		line 206 in file "mcc_generated_files/eusart.c"
  5926 ;; Parameters:    Size  Location     Type
  5927 ;;		None
  5928 ;; Auto vars:     Size  Location     Type
  5929 ;;		None
  5930 ;; Return value:  Size  Location     Type
  5931 ;;                  1    wreg      void 
  5932 ;; Registers used:
  5933 ;;		wreg, fsr1l, fsr1h, status,2, status,0
  5934 ;; Tracked objects:
  5935 ;;		On entry : 0/0
  5936 ;;		On exit  : 0/0
  5937 ;;		Unchanged: 0/0
  5938 ;; Data sizes:     COMMON   BANK0   BANK1   BANK2   BANK3   BANK4   BANK5   BANK6   BANK7   BANK8   BANK9  BANK10  BANK1
      +1  BANK12
  5939 ;;      Params:         0       0       0       0       0       0       0       0       0       0       0       0       
      +0       0
  5940 ;;      Locals:         0       0       0       0       0       0       0       0       0       0       0       0       
      +0       0
  5941 ;;      Temps:          1       0       0       0       0       0       0       0       0       0       0       0       
      +0       0
  5942 ;;      Totals:         1       0       0       0       0       0       0       0       0       0       0       0       
      +0       0
  5943 ;;Total ram usage:        1 bytes
  5944 ;; Hardware stack levels used: 1
  5945 ;; This function calls:
  5946 ;;		Nothing
  5947 ;; This function is called by:
  5948 ;;		_EUSART_Initialize
  5949 ;;		_INTERRUPT_InterruptManager
  5950 ;; This function uses a non-reentrant model
  5951 ;;
  5952                           
  5953                           
  5954                           ;psect for function _EUSART_Transmit_ISR
  5955  023A                     _EUSART_Transmit_ISR:
  5956  023A                     i1l1686:	
  5957                           ;incstack = 0
  5958                           ; Regs used in _EUSART_Transmit_ISR: [wreg+fsr1l+fsr1h+status,2+status,0]
  5959                           
  5960                           
  5961                           ;mcc_generated_files/eusart.c: 210:     if(sizeof(eusartTxBuffer) > eusartTxBufferRemain
      +                          ing)
  5962  023A  3008               	movlw	8
  5963  023B  0020               	movlb	0	; select bank0
  5964  023C  0265               	subwf	_eusartTxBufferRemaining,w	;volatile
  5965  023D  1803               	skipnc
  5966  023E  2A40               	goto	u46_21
  5967  023F  2A41               	goto	u46_20
  5968  0240                     u46_21:
  5969  0240  2A59               	goto	i1l389
  5970  0241                     u46_20:
  5971  0241                     i1l1688:
  5972                           
  5973                           ;mcc_generated_files/eusart.c: 211:     {;mcc_generated_files/eusart.c: 212:         TX1
      +                          REG = eusartTxBuffer[eusartTxTail++];
  5974  0241  0843               	movf	_eusartTxTail,w
  5975  0242  3E30               	addlw	(low (_eusartTxBuffer| 0))& (0+255)
  5976  0243  0086               	movwf	6
  5977  0244  0187               	clrf	7
  5978  0245  0801               	movf	1,w
  5979  0246  0022               	movlb	2	; select bank2
  5980  0247  009A               	movwf	26	;volatile
  5981  0248                     i1l1690:
  5982  0248  3001               	movlw	1
  5983  0249  00F0               	movwf	??_EUSART_Transmit_ISR
  5984  024A  0870               	movf	??_EUSART_Transmit_ISR,w
  5985  024B  0020               	movlb	0	; select bank0
  5986  024C  07C3               	addwf	_eusartTxTail,f	;volatile
  5987  024D                     i1l1692:
  5988                           
  5989                           ;mcc_generated_files/eusart.c: 213:         if(sizeof(eusartTxBuffer) <= eusartTxTail)
  5990  024D  3008               	movlw	8
  5991  024E  0243               	subwf	_eusartTxTail,w	;volatile
  5992  024F  1C03               	skipc
  5993  0250  2A52               	goto	u47_21
  5994  0251  2A53               	goto	u47_20
  5995  0252                     u47_21:
  5996  0252  2A54               	goto	i1l1696
  5997  0253                     u47_20:
  5998  0253                     i1l1694:
  5999                           
  6000                           ;mcc_generated_files/eusart.c: 214:         {;mcc_generated_files/eusart.c: 215:        
      +                               eusartTxTail = 0;
  6001  0253  01C3               	clrf	_eusartTxTail	;volatile
  6002  0254                     i1l1696:
  6003                           
  6004                           ;mcc_generated_files/eusart.c: 217:         eusartTxBufferRemaining++;
  6005  0254  3001               	movlw	1
  6006  0255  00F0               	movwf	??_EUSART_Transmit_ISR
  6007  0256  0870               	movf	??_EUSART_Transmit_ISR,w
  6008  0257  07E5               	addwf	_eusartTxBufferRemaining,f	;volatile
  6009                           
  6010                           ;mcc_generated_files/eusart.c: 218:     }
  6011  0258  2A5B               	goto	i1l392
  6012  0259                     i1l389:	
  6013                           ;mcc_generated_files/eusart.c: 219:     else
  6014                           
  6015                           
  6016                           ;mcc_generated_files/eusart.c: 220:     {;mcc_generated_files/eusart.c: 221:         PIE
      +                          3bits.TXIE = 0;
  6017  0259  002E               	movlb	14	; select bank14
  6018  025A  1219               	bcf	25,4	;volatile
  6019  025B                     i1l392:
  6020  025B  0008               	return
  6021  025C                     __end_of_EUSART_Transmit_ISR:
  6022                           
  6023                           	psect	text20
  6024  0183                     __ptext20:	
  6025 ;; *************** function _EUSART_Receive_ISR *****************
  6026 ;; Defined at:
  6027 ;;		line 225 in file "mcc_generated_files/eusart.c"
  6028 ;; Parameters:    Size  Location     Type
  6029 ;;		None
  6030 ;; Auto vars:     Size  Location     Type
  6031 ;;		None
  6032 ;; Return value:  Size  Location     Type
  6033 ;;                  1    wreg      void 
  6034 ;; Registers used:
  6035 ;;		wreg, fsr1l, fsr1h, status,2, status,0, pclath, cstack
  6036 ;; Tracked objects:
  6037 ;;		On entry : 0/0
  6038 ;;		On exit  : 0/0
  6039 ;;		Unchanged: 0/0
  6040 ;; Data sizes:     COMMON   BANK0   BANK1   BANK2   BANK3   BANK4   BANK5   BANK6   BANK7   BANK8   BANK9  BANK10  BANK1
      +1  BANK12
  6041 ;;      Params:         0       0       0       0       0       0       0       0       0       0       0       0       
      +0       0
  6042 ;;      Locals:         0       0       0       0       0       0       0       0       0       0       0       0       
      +0       0
  6043 ;;      Temps:          0       0       0       0       0       0       0       0       0       0       0       0       
      +0       0
  6044 ;;      Totals:         0       0       0       0       0       0       0       0       0       0       0       0       
      +0       0
  6045 ;;Total ram usage:        0 bytes
  6046 ;; Hardware stack levels used: 1
  6047 ;; Hardware stack levels required when called: 2
  6048 ;; This function calls:
  6049 ;;		Absolute function
  6050 ;;		_EUSART_DefaultErrorHandler
  6051 ;;		_EUSART_DefaultFramingErrorHandler
  6052 ;;		_EUSART_DefaultOverrunErrorHandler
  6053 ;;		_EUSART_RxDataHandler
  6054 ;; This function is called by:
  6055 ;;		_EUSART_Initialize
  6056 ;;		_INTERRUPT_InterruptManager
  6057 ;; This function uses a non-reentrant model
  6058 ;;
  6059                           
  6060                           
  6061                           ;psect for function _EUSART_Receive_ISR
  6062  0183                     _EUSART_Receive_ISR:
  6063  0183                     i1l1698:	
  6064                           ;incstack = 0
  6065                           ; Regs used in _EUSART_Receive_ISR: [wreg+fsr1l+fsr1h+status,2+status,0+pclath+cstack]
  6066                           
  6067                           
  6068                           ;mcc_generated_files/eusart.c: 228:     eusartRxStatusBuffer[eusartRxHead].status = 0;
  6069  0183  087C               	movf	_eusartRxHead,w	;volatile
  6070  0184  3E20               	addlw	(low (_eusartRxStatusBuffer| 0))& (0+255)
  6071  0185  0086               	movwf	6
  6072  0186  0187               	clrf	7
  6073  0187  0181               	clrf	1
  6074  0188                     i1l1700:
  6075                           
  6076                           ;mcc_generated_files/eusart.c: 230:     if(RC1STAbits.FERR){
  6077  0188  0022               	movlb	2	; select bank2
  6078  0189  1D1D               	btfss	29,2	;volatile
  6079  018A  298C               	goto	u48_21
  6080  018B  298D               	goto	u48_20
  6081  018C                     u48_21:
  6082  018C  2998               	goto	i1l1706
  6083  018D                     u48_20:
  6084  018D                     i1l1702:
  6085                           
  6086                           ;mcc_generated_files/eusart.c: 231:         eusartRxStatusBuffer[eusartRxHead].ferr = 1;
  6087  018D  087C               	movf	_eusartRxHead,w	;volatile
  6088  018E  3E20               	addlw	(low (_eusartRxStatusBuffer| 0))& (0+255)
  6089  018F  0086               	movwf	6
  6090  0190  0187               	clrf	7
  6091  0191  1481               	bsf	1,1
  6092  0192                     i1l1704:
  6093                           
  6094                           ;mcc_generated_files/eusart.c: 232:         EUSART_FramingErrorHandler();
  6095  0192  0020               	movlb	0	; select bank0
  6096  0193  0860               	movf	_EUSART_FramingErrorHandler+1,w
  6097  0194  008A               	movwf	10
  6098  0195  085F               	movf	_EUSART_FramingErrorHandler,w
  6099  0196  000A               	callw
  6100  0197  3181               	pagesel	$
  6101  0198                     i1l1706:
  6102                           
  6103                           ;mcc_generated_files/eusart.c: 235:     if(RC1STAbits.OERR){
  6104  0198  0022               	movlb	2	; select bank2
  6105  0199  1C9D               	btfss	29,1	;volatile
  6106  019A  299C               	goto	u49_21
  6107  019B  299D               	goto	u49_20
  6108  019C                     u49_21:
  6109  019C  29A8               	goto	i1l1712
  6110  019D                     u49_20:
  6111  019D                     i1l1708:
  6112                           
  6113                           ;mcc_generated_files/eusart.c: 236:         eusartRxStatusBuffer[eusartRxHead].oerr = 1;
  6114  019D  087C               	movf	_eusartRxHead,w	;volatile
  6115  019E  3E20               	addlw	(low (_eusartRxStatusBuffer| 0))& (0+255)
  6116  019F  0086               	movwf	6
  6117  01A0  0187               	clrf	7
  6118  01A1  1501               	bsf	1,2
  6119  01A2                     i1l1710:
  6120                           
  6121                           ;mcc_generated_files/eusart.c: 237:         EUSART_OverrunErrorHandler();
  6122  01A2  0020               	movlb	0	; select bank0
  6123  01A3  085E               	movf	_EUSART_OverrunErrorHandler+1,w
  6124  01A4  008A               	movwf	10
  6125  01A5  085D               	movf	_EUSART_OverrunErrorHandler,w
  6126  01A6  000A               	callw
  6127  01A7  3181               	pagesel	$
  6128  01A8                     i1l1712:
  6129                           
  6130                           ;mcc_generated_files/eusart.c: 240:     if(eusartRxStatusBuffer[eusartRxHead].status){
  6131  01A8  087C               	movf	_eusartRxHead,w	;volatile
  6132  01A9  3E20               	addlw	(low (_eusartRxStatusBuffer| 0))& (0+255)
  6133  01AA  0086               	movwf	6
  6134  01AB  0187               	clrf	7
  6135  01AC  0801               	movf	1,w
  6136  01AD  1903               	btfsc	3,2
  6137  01AE  29B0               	goto	u50_21
  6138  01AF  29B1               	goto	u50_20
  6139  01B0                     u50_21:
  6140  01B0  29B8               	goto	i1l1716
  6141  01B1                     u50_20:
  6142  01B1                     i1l1714:
  6143                           
  6144                           ;mcc_generated_files/eusart.c: 241:         EUSART_ErrorHandler();
  6145  01B1  0020               	movlb	0	; select bank0
  6146  01B2  085C               	movf	_EUSART_ErrorHandler+1,w
  6147  01B3  008A               	movwf	10
  6148  01B4  085B               	movf	_EUSART_ErrorHandler,w
  6149  01B5  000A               	callw
  6150  01B6  3181               	pagesel	$
  6151                           
  6152                           ;mcc_generated_files/eusart.c: 242:     } else {
  6153  01B7  29BB               	goto	i1l399
  6154  01B8                     i1l1716:
  6155                           
  6156                           ;mcc_generated_files/eusart.c: 243:         EUSART_RxDataHandler();
  6157  01B8  3182  225C  3181   	fcall	_EUSART_RxDataHandler
  6158  01BB                     i1l399:
  6159  01BB  0008               	return
  6160  01BC                     __end_of_EUSART_Receive_ISR:
  6161                           
  6162                           	psect	text21
  6163  02F6                     __ptext21:	
  6164 ;; *************** function _EUSART_DefaultOverrunErrorHandler *****************
  6165 ;; Defined at:
  6166 ;;		line 261 in file "mcc_generated_files/eusart.c"
  6167 ;; Parameters:    Size  Location     Type
  6168 ;;		None
  6169 ;; Auto vars:     Size  Location     Type
  6170 ;;		None
  6171 ;; Return value:  Size  Location     Type
  6172 ;;                  1    wreg      void 
  6173 ;; Registers used:
  6174 ;;		None
  6175 ;; Tracked objects:
  6176 ;;		On entry : 0/0
  6177 ;;		On exit  : 0/0
  6178 ;;		Unchanged: 0/0
  6179 ;; Data sizes:     COMMON   BANK0   BANK1   BANK2   BANK3   BANK4   BANK5   BANK6   BANK7   BANK8   BANK9  BANK10  BANK1
      +1  BANK12
  6180 ;;      Params:         0       0       0       0       0       0       0       0       0       0       0       0       
      +0       0
  6181 ;;      Locals:         0       0       0       0       0       0       0       0       0       0       0       0       
      +0       0
  6182 ;;      Temps:          0       0       0       0       0       0       0       0       0       0       0       0       
      +0       0
  6183 ;;      Totals:         0       0       0       0       0       0       0       0       0       0       0       0       
      +0       0
  6184 ;;Total ram usage:        0 bytes
  6185 ;; Hardware stack levels used: 1
  6186 ;; This function calls:
  6187 ;;		Nothing
  6188 ;; This function is called by:
  6189 ;;		_EUSART_Initialize
  6190 ;;		_EUSART_Receive_ISR
  6191 ;; This function uses a non-reentrant model
  6192 ;;
  6193                           
  6194                           
  6195                           ;psect for function _EUSART_DefaultOverrunErrorHandler
  6196  02F6                     _EUSART_DefaultOverrunErrorHandler:
  6197  02F6                     i1l1632:	
  6198                           ;incstack = 0
  6199                           ; Regs used in _EUSART_DefaultOverrunErrorHandler: []
  6200                           
  6201                           
  6202                           ;mcc_generated_files/eusart.c: 264:     RC1STAbits.CREN = 0;
  6203  02F6  0022               	movlb	2	; select bank2
  6204  02F7  121D               	bcf	29,4	;volatile
  6205                           
  6206                           ;mcc_generated_files/eusart.c: 265:     RC1STAbits.CREN = 1;
  6207  02F8  161D               	bsf	29,4	;volatile
  6208  02F9                     i1l409:
  6209  02F9  0008               	return
  6210  02FA                     __end_of_EUSART_DefaultOverrunErrorHandler:
  6211                           
  6212                           	psect	text22
  6213  02FE                     __ptext22:	
  6214 ;; *************** function _EUSART_DefaultFramingErrorHandler *****************
  6215 ;; Defined at:
  6216 ;;		line 259 in file "mcc_generated_files/eusart.c"
  6217 ;; Parameters:    Size  Location     Type
  6218 ;;		None
  6219 ;; Auto vars:     Size  Location     Type
  6220 ;;		None
  6221 ;; Return value:  Size  Location     Type
  6222 ;;                  1    wreg      void 
  6223 ;; Registers used:
  6224 ;;		None
  6225 ;; Tracked objects:
  6226 ;;		On entry : 0/0
  6227 ;;		On exit  : 0/0
  6228 ;;		Unchanged: 0/0
  6229 ;; Data sizes:     COMMON   BANK0   BANK1   BANK2   BANK3   BANK4   BANK5   BANK6   BANK7   BANK8   BANK9  BANK10  BANK1
      +1  BANK12
  6230 ;;      Params:         0       0       0       0       0       0       0       0       0       0       0       0       
      +0       0
  6231 ;;      Locals:         0       0       0       0       0       0       0       0       0       0       0       0       
      +0       0
  6232 ;;      Temps:          0       0       0       0       0       0       0       0       0       0       0       0       
      +0       0
  6233 ;;      Totals:         0       0       0       0       0       0       0       0       0       0       0       0       
      +0       0
  6234 ;;Total ram usage:        0 bytes
  6235 ;; Hardware stack levels used: 1
  6236 ;; This function calls:
  6237 ;;		Nothing
  6238 ;; This function is called by:
  6239 ;;		_EUSART_Initialize
  6240 ;;		_EUSART_Receive_ISR
  6241 ;; This function uses a non-reentrant model
  6242 ;;
  6243                           
  6244                           
  6245                           ;psect for function _EUSART_DefaultFramingErrorHandler
  6246  02FE                     _EUSART_DefaultFramingErrorHandler:
  6247  02FE                     i1l406:	
  6248                           ;incstack = 0
  6249                           ; Regs used in _EUSART_DefaultFramingErrorHandler: []
  6250                           
  6251  02FE  0008               	return
  6252  02FF                     __end_of_EUSART_DefaultFramingErrorHandler:
  6253                           
  6254                           	psect	text23
  6255  02FA                     __ptext23:	
  6256 ;; *************** function _EUSART_DefaultErrorHandler *****************
  6257 ;; Defined at:
  6258 ;;		line 269 in file "mcc_generated_files/eusart.c"
  6259 ;; Parameters:    Size  Location     Type
  6260 ;;		None
  6261 ;; Auto vars:     Size  Location     Type
  6262 ;;		None
  6263 ;; Return value:  Size  Location     Type
  6264 ;;                  1    wreg      void 
  6265 ;; Registers used:
  6266 ;;		wreg, fsr1l, fsr1h, status,2, status,0, pclath, cstack
  6267 ;; Tracked objects:
  6268 ;;		On entry : 0/0
  6269 ;;		On exit  : 0/0
  6270 ;;		Unchanged: 0/0
  6271 ;; Data sizes:     COMMON   BANK0   BANK1   BANK2   BANK3   BANK4   BANK5   BANK6   BANK7   BANK8   BANK9  BANK10  BANK1
      +1  BANK12
  6272 ;;      Params:         0       0       0       0       0       0       0       0       0       0       0       0       
      +0       0
  6273 ;;      Locals:         0       0       0       0       0       0       0       0       0       0       0       0       
      +0       0
  6274 ;;      Temps:          0       0       0       0       0       0       0       0       0       0       0       0       
      +0       0
  6275 ;;      Totals:         0       0       0       0       0       0       0       0       0       0       0       0       
      +0       0
  6276 ;;Total ram usage:        0 bytes
  6277 ;; Hardware stack levels used: 1
  6278 ;; Hardware stack levels required when called: 1
  6279 ;; This function calls:
  6280 ;;		_EUSART_RxDataHandler
  6281 ;; This function is called by:
  6282 ;;		_EUSART_Initialize
  6283 ;;		_EUSART_Receive_ISR
  6284 ;; This function uses a non-reentrant model
  6285 ;;
  6286                           
  6287                           
  6288                           ;psect for function _EUSART_DefaultErrorHandler
  6289  02FA                     _EUSART_DefaultErrorHandler:
  6290  02FA                     i1l1634:	
  6291                           ;incstack = 0
  6292                           ; Regs used in _EUSART_DefaultErrorHandler: [wreg+fsr1l+fsr1h+status,2+status,0+pclath+c
      +                          stack]
  6293                           
  6294                           
  6295                           ;mcc_generated_files/eusart.c: 270:     EUSART_RxDataHandler();
  6296  02FA  3182  225C  3182   	fcall	_EUSART_RxDataHandler
  6297  02FD                     i1l412:
  6298  02FD  0008               	return
  6299  02FE                     __end_of_EUSART_DefaultErrorHandler:
  6300                           
  6301                           	psect	text24
  6302  025C                     __ptext24:	
  6303 ;; *************** function _EUSART_RxDataHandler *****************
  6304 ;; Defined at:
  6305 ;;		line 249 in file "mcc_generated_files/eusart.c"
  6306 ;; Parameters:    Size  Location     Type
  6307 ;;		None
  6308 ;; Auto vars:     Size  Location     Type
  6309 ;;		None
  6310 ;; Return value:  Size  Location     Type
  6311 ;;                  1    wreg      void 
  6312 ;; Registers used:
  6313 ;;		wreg, fsr1l, fsr1h, status,2, status,0
  6314 ;; Tracked objects:
  6315 ;;		On entry : 0/0
  6316 ;;		On exit  : 0/0
  6317 ;;		Unchanged: 0/0
  6318 ;; Data sizes:     COMMON   BANK0   BANK1   BANK2   BANK3   BANK4   BANK5   BANK6   BANK7   BANK8   BANK9  BANK10  BANK1
      +1  BANK12
  6319 ;;      Params:         0       0       0       0       0       0       0       0       0       0       0       0       
      +0       0
  6320 ;;      Locals:         0       0       0       0       0       0       0       0       0       0       0       0       
      +0       0
  6321 ;;      Temps:          1       0       0       0       0       0       0       0       0       0       0       0       
      +0       0
  6322 ;;      Totals:         1       0       0       0       0       0       0       0       0       0       0       0       
      +0       0
  6323 ;;Total ram usage:        1 bytes
  6324 ;; Hardware stack levels used: 1
  6325 ;; This function calls:
  6326 ;;		Nothing
  6327 ;; This function is called by:
  6328 ;;		_EUSART_Receive_ISR
  6329 ;;		_EUSART_DefaultErrorHandler
  6330 ;; This function uses a non-reentrant model
  6331 ;;
  6332                           
  6333                           
  6334                           ;psect for function _EUSART_RxDataHandler
  6335  025C                     _EUSART_RxDataHandler:
  6336  025C                     i1l1558:	
  6337                           ;incstack = 0
  6338                           ; Regs used in _EUSART_RxDataHandler: [wreg+fsr1l+fsr1h+status,2+status,0]
  6339                           
  6340                           
  6341                           ;mcc_generated_files/eusart.c: 251:     eusartRxBuffer[eusartRxHead++] = RC1REG;
  6342  025C  0022               	movlb	2	; select bank2
  6343  025D  0819               	movf	25,w	;volatile
  6344  025E  00F0               	movwf	??_EUSART_RxDataHandler
  6345  025F  087C               	movf	_eusartRxHead,w
  6346  0260  3E28               	addlw	(low (_eusartRxBuffer| 0))& (0+255)
  6347  0261  0086               	movwf	6
  6348  0262  0187               	clrf	7
  6349  0263  0870               	movf	??_EUSART_RxDataHandler,w
  6350  0264  0081               	movwf	1
  6351  0265                     i1l1560:
  6352  0265  3001               	movlw	1
  6353  0266  00F0               	movwf	??_EUSART_RxDataHandler
  6354  0267  0870               	movf	??_EUSART_RxDataHandler,w
  6355  0268  07FC               	addwf	_eusartRxHead,f	;volatile
  6356  0269                     i1l1562:
  6357                           
  6358                           ;mcc_generated_files/eusart.c: 252:     if(sizeof(eusartRxBuffer) <= eusartRxHead)
  6359  0269  3008               	movlw	8
  6360  026A  027C               	subwf	_eusartRxHead,w	;volatile
  6361  026B  1C03               	skipc
  6362  026C  2A6E               	goto	u40_21
  6363  026D  2A6F               	goto	u40_20
  6364  026E                     u40_21:
  6365  026E  2A70               	goto	i1l1566
  6366  026F                     u40_20:
  6367  026F                     i1l1564:
  6368                           
  6369                           ;mcc_generated_files/eusart.c: 253:     {;mcc_generated_files/eusart.c: 254:         eus
      +                          artRxHead = 0;
  6370  026F  01FC               	clrf	_eusartRxHead	;volatile
  6371  0270                     i1l1566:
  6372                           
  6373                           ;mcc_generated_files/eusart.c: 256:     eusartRxCount++;
  6374  0270  3001               	movlw	1
  6375  0271  00F0               	movwf	??_EUSART_RxDataHandler
  6376  0272  0870               	movf	??_EUSART_RxDataHandler,w
  6377  0273  0020               	movlb	0	; select bank0
  6378  0274  07C1               	addwf	_eusartRxCount,f	;volatile
  6379  0275                     i1l403:
  6380  0275  0008               	return
  6381  0276                     __end_of_EUSART_RxDataHandler:
  6382  007E                     btemp	set	126	;btemp
  6383  007E                     int$flags	set	126
  6384  007E                     wtemp0	set	126
  6385                           
  6386                           	psect	idloc
  6387                           
  6388                           ;Config register IDLOC0 @ 0x8000
  6389                           ;	unspecified, using default values
  6390  8000                     	org	32768
  6391  8000  3FFF               	dw	16383
  6392                           
  6393                           ;Config register IDLOC1 @ 0x8001
  6394                           ;	unspecified, using default values
  6395  8001                     	org	32769
  6396  8001  3FFF               	dw	16383
  6397                           
  6398                           ;Config register IDLOC2 @ 0x8002
  6399                           ;	unspecified, using default values
  6400  8002                     	org	32770
  6401  8002  3FFF               	dw	16383
  6402                           
  6403                           ;Config register IDLOC3 @ 0x8003
  6404                           ;	unspecified, using default values
  6405  8003                     	org	32771
  6406  8003  3FFF               	dw	16383
  6407                           
  6408                           	psect	config
  6409                           
  6410                           ;Config register CONFIG1 @ 0x8007
  6411                           ;	External Oscillator mode selection bits
  6412                           ;	FEXTOSC = OFF, Oscillator not enabled
  6413                           ;	Power-up default value for COSC bits
  6414                           ;	RSTOSC = HFINT1, HFINTOSC (1MHz)
  6415                           ;	Clock Out Enable bit
  6416                           ;	CLKOUTEN = OFF, CLKOUT function is disabled; i/o or oscillator function on OSC2
  6417                           ;	Clock Switch Enable bit
  6418                           ;	CSWEN = ON, Writing to NOSC and NDIV is allowed
  6419                           ;	Fail-Safe Clock Monitor Enable bit
  6420                           ;	FCMEN = ON, FSCM timer enabled
  6421  8007                     	org	32775
  6422  8007  3FEC               	dw	16364
  6423                           
  6424                           ;Config register CONFIG2 @ 0x8008
  6425                           ;	Master Clear Enable bit
  6426                           ;	MCLRE = ON, MCLR pin is Master Clear function
  6427                           ;	Power-up Timer Enable bit
  6428                           ;	PWRTE = OFF, PWRT disabled
  6429                           ;	Low-Power BOR enable bit
  6430                           ;	LPBOREN = OFF, ULPBOR disabled
  6431                           ;	Brown-out reset enable bits
  6432                           ;	BOREN = ON, Brown-out Reset Enabled, SBOREN bit is ignored
  6433                           ;	Brown-out Reset Voltage Selection
  6434                           ;	BORV = LO, Brown-out Reset Voltage (VBOR) set to 1.9V on LF, and 2.45V on F Devices
  6435                           ;	Zero-cross detect disable
  6436                           ;	ZCD = OFF, Zero-cross detect circuit is disabled at POR.
  6437                           ;	Peripheral Pin Select one-way control
  6438                           ;	PPS1WAY = ON, The PPSLOCK bit can be cleared and set only once in software
  6439                           ;	Stack Overflow/Underflow Reset Enable bit
  6440                           ;	STVREN = ON, Stack Overflow or Underflow will cause a reset
  6441                           ;	Background Debugger
  6442                           ;	DEBUG = OFF, Background Debugger disabled
  6443  8008                     	org	32776
  6444  8008  3FFF               	dw	16383
  6445                           
  6446                           ;Config register CONFIG3 @ 0x8009
  6447                           ;	WDT Period Select bits
  6448                           ;	WDTCPS = WDTCPS_31, Divider ratio 1:65536; software control of WDTPS
  6449                           ;	WDT operating mode
  6450                           ;	WDTE = OFF, WDT Disabled, SWDTEN is ignored
  6451                           ;	WDT Window Select bits
  6452                           ;	WDTCWS = WDTCWS_7, window always open (100%); software control; keyed access not requi
      +                          red
  6453                           ;	WDT input clock selector
  6454                           ;	WDTCCS = SC, Software Control
  6455  8009                     	org	32777
  6456  8009  3F9F               	dw	16287
  6457                           
  6458                           ;Config register CONFIG4 @ 0x800A
  6459                           ;	UserNVM self-write protection bits
  6460                           ;	WRT = OFF, Write protection off
  6461                           ;	Scanner Enable bit
  6462                           ;	SCANE = available, Scanner module is available for use
  6463                           ;	Low Voltage Programming Enable bit
  6464                           ;	LVP = ON, Low Voltage programming enabled. MCLR/Vpp pin function is MCLR.
  6465  800A                     	org	32778
  6466  800A  3FFF               	dw	16383
  6467                           
  6468                           ;Config register CONFIG5 @ 0x800B
  6469                           ;	UserNVM Program memory code protection bit
  6470                           ;	CP = OFF, Program Memory code protection disabled
  6471                           ;	DataNVM code protection bit
  6472                           ;	CPD = OFF, Data EEPROM code protection disabled
  6473  800B                     	org	32779
  6474  800B  3FFF               	dw	16383

Data Sizes:
    Strings     11
    Constant    0
    Data        0
    BSS         70
    Persistent  43
    Stack       0

Auto Spaces:
    Space          Size  Autos    Used
    COMMON           14     12      13
    BANK0            80     22      70
    BANK1            80      0      32
    BANK2            80      0       0
    BANK3            80      0       0
    BANK4            80      0       0
    BANK5            80      0       0
    BANK6            80      0       0
    BANK7            80      0       0
    BANK8            80      0       0
    BANK9            80      0       0
    BANK10           80      0       0
    BANK11           80      0       0
    BANK12           48      0       0

Pointer List with Targets:

    vfpfcnvrt@ap	PTR PTR void  size(1) Largest target is 1
		 -> printf@ap(BANK0[1]), 

    S1105_IO_FILE$buffer	PTR unsigned char  size(1) Largest target is 0

    fputc@fp.buffer	PTR unsigned char  size(1) Largest target is 0

    fputc@fp	PTR struct _IO_FILE size(1) Largest target is 0
		 -> NULL(NULL[0]), 

    vfprintf@ap	PTR PTR void  size(1) Largest target is 1
		 -> printf@ap(BANK0[1]), 

    vfprintf@fp	PTR struct _IO_FILE size(1) Largest target is 0
		 -> NULL(NULL[0]), 

    vfprintf@fmt	PTR const unsigned char  size(2) Largest target is 11
		 -> STR_1(CODE[11]), 

    vfprintf@cfmt	PTR unsigned char  size(2) Largest target is 11
		 -> STR_1(CODE[11]), 

    vfpfcnvrt@fp	PTR struct _IO_FILE size(1) Largest target is 0
		 -> NULL(NULL[0]), 

    vfpfcnvrt@fmt	PTR PTR unsigned char  size(1) Largest target is 2
		 -> vfprintf@cfmt(BANK0[2]), 

    printf@fmt	PTR const unsigned char  size(2) Largest target is 11
		 -> STR_1(CODE[11]), 

    printf@ap	PTR void [1] size(1) Largest target is 2
		 -> ?_printf(BANK0[2]), 

    EUSART_SetRxInterruptHandler@interruptHandler	PTR FTN()void  size(2) Largest target is 1
		 -> EUSART_Receive_ISR(), 

    EUSART_RxDefaultInterruptHandler	PTR FTN()void  size(2) Largest target is 1
		 -> Absolute function(), EUSART_Receive_ISR(), 

    EUSART_SetTxInterruptHandler@interruptHandler	PTR FTN()void  size(2) Largest target is 1
		 -> EUSART_Transmit_ISR(), 

    EUSART_TxDefaultInterruptHandler	PTR FTN()void  size(2) Largest target is 1
		 -> Absolute function(), EUSART_Transmit_ISR(), 

    EUSART_SetErrorHandler@interruptHandler	PTR FTN()void  size(2) Largest target is 1
		 -> EUSART_DefaultErrorHandler(), 

    EUSART_SetOverrunErrorHandler@interruptHandler	PTR FTN()void  size(2) Largest target is 1
		 -> EUSART_DefaultOverrunErrorHandler(), 

    EUSART_SetFramingErrorHandler@interruptHandler	PTR FTN()void  size(2) Largest target is 1
		 -> EUSART_DefaultFramingErrorHandler(), 

    EUSART_ErrorHandler	PTR FTN()void  size(2) Largest target is 1
		 -> Absolute function(), EUSART_DefaultErrorHandler(), 

    EUSART_OverrunErrorHandler	PTR FTN()void  size(2) Largest target is 1
		 -> Absolute function(), EUSART_DefaultOverrunErrorHandler(), 

    EUSART_FramingErrorHandler	PTR FTN()void  size(2) Largest target is 1
		 -> Absolute function(), EUSART_DefaultFramingErrorHandler(), 


Critical Paths under _main in COMMON

    _vfpfcnvrt->_fputc
    _fputc->_putch
    _putch->_EUSART_Write
    _SYSTEM_Initialize->_EUSART_Initialize
    _EUSART_Initialize->_EUSART_SetErrorHandler
    _EUSART_Initialize->_EUSART_SetFramingErrorHandler
    _EUSART_Initialize->_EUSART_SetOverrunErrorHandler
    _EUSART_Initialize->_EUSART_SetRxInterruptHandler
    _EUSART_Initialize->_EUSART_SetTxInterruptHandler

Critical Paths under _INTERRUPT_InterruptManager in COMMON

    _INTERRUPT_InterruptManager->_EUSART_Transmit_ISR
    _EUSART_Receive_ISR->_EUSART_RxDataHandler
    _EUSART_DefaultErrorHandler->_EUSART_RxDataHandler

Critical Paths under _main in BANK0

    _main->_printf
    _printf->_vfprintf
    _vfprintf->_vfpfcnvrt

Critical Paths under _INTERRUPT_InterruptManager in BANK0

    None.

Critical Paths under _main in BANK1

    None.

Critical Paths under _INTERRUPT_InterruptManager in BANK1

    None.

Critical Paths under _main in BANK2

    None.

Critical Paths under _INTERRUPT_InterruptManager in BANK2

    None.

Critical Paths under _main in BANK3

    None.

Critical Paths under _INTERRUPT_InterruptManager in BANK3

    None.

Critical Paths under _main in BANK4

    None.

Critical Paths under _INTERRUPT_InterruptManager in BANK4

    None.

Critical Paths under _main in BANK5

    None.

Critical Paths under _INTERRUPT_InterruptManager in BANK5

    None.

Critical Paths under _main in BANK6

    None.

Critical Paths under _INTERRUPT_InterruptManager in BANK6

    None.

Critical Paths under _main in BANK7

    None.

Critical Paths under _INTERRUPT_InterruptManager in BANK7

    None.

Critical Paths under _main in BANK8

    None.

Critical Paths under _INTERRUPT_InterruptManager in BANK8

    None.

Critical Paths under _main in BANK9

    None.

Critical Paths under _INTERRUPT_InterruptManager in BANK9

    None.

Critical Paths under _main in BANK10

    None.

Critical Paths under _INTERRUPT_InterruptManager in BANK10

    None.

Critical Paths under _main in BANK11

    None.

Critical Paths under _INTERRUPT_InterruptManager in BANK11

    None.

Critical Paths under _main in BANK12

    None.

Critical Paths under _INTERRUPT_InterruptManager in BANK12

    None.

Call Graph Tables:

 ---------------------------------------------------------------------------------
 (Depth) Function   	        Calls       Base Space   Used Autos Params    Refs
 ---------------------------------------------------------------------------------
 (0) _main                                                 2     2      0    2552
                                             20 BANK0      2     2      0
                  _SYSTEM_Initialize
                             _printf
 ---------------------------------------------------------------------------------
 (1) _printf                                               6     4      2    2062
                                             16 BANK0      4     2      2
                           _vfprintf
 ---------------------------------------------------------------------------------
 (2) _vfprintf                                             8     5      3    1897
                                              8 BANK0      8     5      3
                          _vfpfcnvrt
 ---------------------------------------------------------------------------------
 (3) _vfpfcnvrt                                           40    38      2    1471
                                              0 BANK0      8     6      2
                              _fputc
 ---------------------------------------------------------------------------------
 (4) _fputc                                                8     5      3     957
                                              4 COMMON     8     5      3
                              _putch
 ---------------------------------------------------------------------------------
 (5) _putch                                                1     1      0      93
                                              3 COMMON     1     1      0
                       _EUSART_Write
 ---------------------------------------------------------------------------------
 (6) _EUSART_Write                                         2     2      0      62
                                              1 COMMON     2     2      0
 ---------------------------------------------------------------------------------
 (1) _SYSTEM_Initialize                                    0     0      0     490
                    _ADCC_Initialize
                  _EUSART_Initialize
              _OSCILLATOR_Initialize
             _PIN_MANAGER_Initialize
                     _PMD_Initialize
 ---------------------------------------------------------------------------------
 (2) _PMD_Initialize                                       0     0      0       0
 ---------------------------------------------------------------------------------
 (2) _PIN_MANAGER_Initialize                               0     0      0       0
 ---------------------------------------------------------------------------------
 (2) _OSCILLATOR_Initialize                                0     0      0       0
 ---------------------------------------------------------------------------------
 (2) _EUSART_Initialize                                    1     1      0     490
                                              3 COMMON     1     1      0
             _EUSART_SetErrorHandler
      _EUSART_SetFramingErrorHandler
      _EUSART_SetOverrunErrorHandler
       _EUSART_SetRxInterruptHandler
       _EUSART_SetTxInterruptHandler
 ---------------------------------------------------------------------------------
 (3) _EUSART_SetTxInterruptHandler                         2     0      2      98
                                              1 COMMON     2     0      2
 ---------------------------------------------------------------------------------
 (3) _EUSART_SetRxInterruptHandler                         2     0      2      98
                                              1 COMMON     2     0      2
 ---------------------------------------------------------------------------------
 (3) _EUSART_SetOverrunErrorHandler                        2     0      2      98
                                              1 COMMON     2     0      2
 ---------------------------------------------------------------------------------
 (3) _EUSART_SetFramingErrorHandler                        2     0      2      98
                                              1 COMMON     2     0      2
 ---------------------------------------------------------------------------------
 (3) _EUSART_SetErrorHandler                               2     0      2      98
                                              1 COMMON     2     0      2
 ---------------------------------------------------------------------------------
 (2) _ADCC_Initialize                                      0     0      0       0
 ---------------------------------------------------------------------------------
 Estimated maximum stack depth 6
 ---------------------------------------------------------------------------------
 (Depth) Function   	        Calls       Base Space   Used Autos Params    Refs
 ---------------------------------------------------------------------------------
 (7) _INTERRUPT_InterruptManager                           0     0      0       0
                   Absolute function *
                 _EUSART_Receive_ISR *
                _EUSART_Transmit_ISR *
 ---------------------------------------------------------------------------------
 (8) _EUSART_Transmit_ISR                                  1     1      0       0
                                              0 COMMON     1     1      0
 ---------------------------------------------------------------------------------
 (8) _EUSART_Receive_ISR                                   0     0      0       0
                   Absolute function *
         _EUSART_DefaultErrorHandler *
  _EUSART_DefaultFramingErrorHandler *
  _EUSART_DefaultOverrunErrorHandler *
               _EUSART_RxDataHandler
 ---------------------------------------------------------------------------------
 (9) _EUSART_DefaultOverrunErrorHandler                    0     0      0       0
 ---------------------------------------------------------------------------------
 (9) _EUSART_DefaultFramingErrorHandler                    0     0      0       0
 ---------------------------------------------------------------------------------
 (9) _EUSART_DefaultErrorHandler                           0     0      0       0
               _EUSART_RxDataHandler
 ---------------------------------------------------------------------------------
 (9) _EUSART_RxDataHandler                                 1     1      0       0
                                              0 COMMON     1     1      0
 ---------------------------------------------------------------------------------
 (9) Absolute function(Fake)                               0     0      0       0
 ---------------------------------------------------------------------------------
 Estimated maximum stack depth 9
 ---------------------------------------------------------------------------------

 Call Graph Graphs:

 _main (ROOT)
   _SYSTEM_Initialize
     _ADCC_Initialize
     _EUSART_Initialize
       _EUSART_SetErrorHandler
       _EUSART_SetFramingErrorHandler
       _EUSART_SetOverrunErrorHandler
       _EUSART_SetRxInterruptHandler
       _EUSART_SetTxInterruptHandler
     _OSCILLATOR_Initialize
     _PIN_MANAGER_Initialize
     _PMD_Initialize
   _printf
     _vfprintf
       _vfpfcnvrt
         _fputc
           _putch
             _EUSART_Write

 _INTERRUPT_InterruptManager (ROOT)
   Absolute function(Fake) *
   _EUSART_Receive_ISR *
     Absolute function(Fake) *
     _EUSART_DefaultErrorHandler *
       _EUSART_RxDataHandler
     _EUSART_DefaultFramingErrorHandler *
     _EUSART_DefaultOverrunErrorHandler *
     _EUSART_RxDataHandler *
   _EUSART_Transmit_ISR *

 Address spaces:
Name               Size   Autos  Total    Cost      Usage
BIGRAM             3F0      0       0       0        0.0%
EEDATA             100      0       0       0        0.0%
NULL                 0      0       0       0        0.0%
CODE                 0      0       0       0        0.0%
BITCOMMON            E      0       0       1        0.0%
BITSFR0              0      0       0       1        0.0%
SFR0                 0      0       0       1        0.0%
COMMON               E      C       D       2       92.9%
BITSFR1              0      0       0       2        0.0%
SFR1                 0      0       0       2        0.0%
BITSFR2              0      0       0       3        0.0%
SFR2                 0      0       0       3        0.0%
STACK                0      0       0       3        0.0%
BITBANK0            50      0       0       4        0.0%
BITSFR3              0      0       0       4        0.0%
SFR3                 0      0       0       4        0.0%
BANK0               50     16      46       5       87.5%
BITSFR4              0      0       0       5        0.0%
SFR4                 0      0       0       5        0.0%
BITBANK1            50      0       0       6        0.0%
BITSFR5              0      0       0       6        0.0%
SFR5                 0      0       0       6        0.0%
BANK1               50      0      20       7       40.0%
BITSFR6              0      0       0       7        0.0%
SFR6                 0      0       0       7        0.0%
BITBANK2            50      0       0       8        0.0%
BITSFR7              0      0       0       8        0.0%
SFR7                 0      0       0       8        0.0%
BANK2               50      0       0       9        0.0%
BITSFR8              0      0       0       9        0.0%
SFR8                 0      0       0       9        0.0%
BITBANK3            50      0       0      10        0.0%
BITSFR9              0      0       0      10        0.0%
SFR9                 0      0       0      10        0.0%
BANK3               50      0       0      11        0.0%
BITSFR10             0      0       0      11        0.0%
SFR10                0      0       0      11        0.0%
BITBANK4            50      0       0      12        0.0%
BITSFR11             0      0       0      12        0.0%
SFR11                0      0       0      12        0.0%
BANK4               50      0       0      13        0.0%
BITSFR12             0      0       0      13        0.0%
SFR12                0      0       0      13        0.0%
BITBANK5            50      0       0      14        0.0%
BITSFR13             0      0       0      14        0.0%
SFR13                0      0       0      14        0.0%
BANK5               50      0       0      15        0.0%
BITSFR14             0      0       0      15        0.0%
SFR14                0      0       0      15        0.0%
BITBANK6            50      0       0      16        0.0%
BITSFR15             0      0       0      16        0.0%
SFR15                0      0       0      16        0.0%
BANK6               50      0       0      17        0.0%
BITSFR16             0      0       0      17        0.0%
SFR16                0      0       0      17        0.0%
BITBANK7            50      0       0      18        0.0%
BITSFR17             0      0       0      18        0.0%
SFR17                0      0       0      18        0.0%
BANK7               50      0       0      19        0.0%
BITSFR18             0      0       0      19        0.0%
SFR18                0      0       0      19        0.0%
BITSFR19             0      0       0      20        0.0%
SFR19                0      0       0      20        0.0%
ABS                  0      0      73      20        0.0%
BITBANK8            50      0       0      21        0.0%
BITSFR20             0      0       0      21        0.0%
SFR20                0      0       0      21        0.0%
BANK8               50      0       0      22        0.0%
BITSFR21             0      0       0      22        0.0%
SFR21                0      0       0      22        0.0%
BITBANK9            50      0       0      23        0.0%
BITSFR22             0      0       0      23        0.0%
SFR22                0      0       0      23        0.0%
BANK9               50      0       0      24        0.0%
BITSFR23             0      0       0      24        0.0%
SFR23                0      0       0      24        0.0%
BITBANK10           50      0       0      25        0.0%
BITSFR24             0      0       0      25        0.0%
SFR24                0      0       0      25        0.0%
BANK10              50      0       0      26        0.0%
BITSFR25             0      0       0      26        0.0%
SFR25                0      0       0      26        0.0%
BITBANK11           50      0       0      27        0.0%
BITSFR26             0      0       0      27        0.0%
SFR26                0      0       0      27        0.0%
BANK11              50      0       0      28        0.0%
BITSFR27             0      0       0      28        0.0%
SFR27                0      0       0      28        0.0%
BITBANK12           30      0       0      29        0.0%
BITSFR28             0      0       0      29        0.0%
SFR28                0      0       0      29        0.0%
BANK12              30      0       0      30        0.0%
BITSFR29             0      0       0      30        0.0%
SFR29                0      0       0      30        0.0%
BITSFR30             0      0       0      31        0.0%
SFR30                0      0       0      31        0.0%
DATA                 0      0      73      31        0.0%
BITSFR31             0      0       0      32        0.0%
SFR31                0      0       0      32        0.0%


Microchip Technology PIC Macro Assembler V2.32 build 20210201212658 
Symbol Table                                                                                   Sun Oct 09 22:04:10 2022

                ?_EUSART_SetRxInterruptHandler 0071                                             l77 01E7  
                                          l121 02CB                                            l115 02AF  
                                          l118 02C3                                            l421 02F5  
                                          l415 02EF                                            l424 02DD  
                                          l352 0143                                            l418 02E9  
                                          l427 02E3                                            l196 028D  
                                          l380 0211                                            l376 01EF  
                                          l377 01F8                                            l386 02D7  
                                          u700 017A                                            u701 0179  
                                          u710 0055                                            u711 0054  
                                          u640 01EF                                            u720 0076  
                                          u800 00EC                                            u641 01EE  
                                          u705 0176                                            u721 0075  
                                          u801 00E9                                            u650 01F4  
                                          u730 0235                                            u651 01F3  
                                          u731 0234                                            u660 020C  
                                          u740 00CB                                            u661 020B  
                                          u741 00C8                                            u670 0149  
                                          u814 00EE                                            u671 0148  
                                          u680 014E                                            u760 00D6  
                                          u681 014D                                            u761 00D3  
                                          u690 015D                                            u754 00CD  
                                          u691 015C                                            u827 00FB  
                                          u780 00E1                                            u781 00DE  
                                          u774 00D8                                            u794 00E3  
                       ??_EUSART_RxDataHandler 0070                 ?_EUSART_SetFramingErrorHandler 0071  
                      __size_of_PMD_Initialize 0008                                            wreg 0009  
                                         l1102 0239                                           l1114 0182  
                                         l1220 01C2                                           l1230 01D4  
                                         l1222 01C4                                           l1063 029F  
                                         l1240 01DE                                           l1232 01D6  
                                         l1224 01C6                                           l1216 01BC  
                                         l1250 02BB                                           l1242 01E0  
                                         l1234 01D8                                           l1226 01C9  
                                         l1218 01C0                                           l1260 0288  
                                         l1252 02BE                                           l1244 01E2  
                                         l1236 01DA                                           l1228 01CB  
                                         l1262 028A                                           l1254 02BF  
                                         l1246 01E4                                           l1238 01DC  
                                         l1600 0104                                           l1256 02C2  
                                         l1248 02C4                                           l1096 00BD  
                                         l1258 0276                                           l1610 011B  
                                         l1602 0106                                           l1620 012F  
                                         l1612 011D                                           l1604 010D  
                                         l1550 02D8                                           l1630 0141  
                                         l1622 0136                                           l1614 011F  
                                         l1606 0116                                           l1552 02EA  
                                         l1624 0138                                           l1616 0121  
                                         l1608 0119                                           l1800 008F  
                                         l1554 02E4                                           l1626 0139  
                                         l1618 0128                                           l1650 02A3  
                                         l1802 0097                                           l1556 02F0  
                                         l1548 02DE                                           l1628 013A  
                                         l1652 02A6                                           l1820 022C  
                                         l1654 02A9                                           l1750 01E9  
                                         l1806 009A                                           l1822 0235  
                                         l1814 0214                                           l1656 02AC  
                                         l1648 02A0                                           l1760 020C  
                                         l1752 01F4                                           l1808 00B3  
                                         l1816 0218                                           l1840 00E3  
                                         l1832 00BE                                           l1762 020D  
                                         l1754 01F9                                           l1770 0149  
                                         l1818 021B                                           l1826 028E  
                                         l1842 00EE                                           l1834 00C1  
                                         l1756 0202                                           l1764 020F  
                                         l1748 01E9                                           l1772 014E  
                                         l1828 0293                                           l1844 00F5  
                                         l1836 00CD                                           l1758 0206  
                                         l1766 02D3                                           l1774 0153  
                                         l1790 0065                                           l1782 0044  
                                         l1838 00D8                                           l1776 015D  
                                         l1768 0144                                           l1792 0076  
                                         l1784 0055                                           l1778 017A  
                                         l1794 007E                                           l1786 005D  
                                         l1796 0089                                           l1788 0061  
                                         STR_1 02B0                                           _LATA 0016  
                                         _LATB 0017                                           _LATC 0018  
                                         _PMD0 0796                                           _PMD1 0797  
                                         _PMD2 0798                                           _PMD3 0799  
                                         _PMD4 079A                                           _PMD5 079B  
                                         _WPUA 0F39                                           _WPUB 0F44  
                                         _WPUC 0F4F                                           _WPUE 0F65  
                                         _dbuf 00A0                                           _main 00BE  
                                         _prec 003C                                           _nout 0038  
                                         fsr0h 0005                                           fsr1h 0007  
                                         indf0 0000                                           fsr0l 0004  
                                         indf1 0001                                           fsr1l 0006  
                                         btemp 007E                                           start 002B  
                                ?_EUSART_Write 0070                 __size_of_OSCILLATOR_Initialize 0009  
                __end_of_OSCILLATOR_Initialize 02C4                                          _ADACQ 009D  
                                        _ADCAP 009B                                          _ADACT 0099  
                                        ?_main 0070                                          _ADCLK 0098  
                                        _ADCNT 010C                                          _ADPCH 009E  
                                        _ADREF 009A                                          _ADPRE 009C  
                                        _ADRPT 010D                                          i1l403 0275  
                                        i1l412 02FD                                          i1l406 02FE  
                                        i1l409 02F9                                          i1l443 001A  
                                        i1l444 0029                                          i1l392 025B  
                                        i1l448 0029                                          i1l389 0259  
                                        i1l399 01BB                                          _OSCEN 0891  
                                 vfpfcnvrt@fmt 0045                                          u40_20 026F  
                                        u40_21 026E                                          u50_20 01B1  
                                        u50_21 01B0                                          u60_20 000F  
                                        u60_21 000E                                          u61_20 0013  
                                        u61_21 0012                                          u46_20 0241  
                                        u62_20 001E                                          u46_21 0240  
                                        u62_21 001D                                          u47_20 0253  
                                        u63_20 0022                                          u47_21 0252  
                                        u63_21 0021                                          u48_20 018D  
                                        u48_21 018C                                          u49_20 019D  
                                        u49_21 019C                                          _TRISA 0011  
                                        _TRISB 0012                                          _TRISC 0013  
                                        u59_20 000A                                          u59_21 0009  
                                        _RXPPS 0ECB                                          _flags 003E  
                                        _fputc 0144                                          _width 003A  
                                        _putch 02D2                                          pclath 000A  
                                        status 0003                                          wtemp0 007E  
                              __initialization 002D                                   __end_of_main 0104  
                               ??_EUSART_Write 0071                    ?_INTERRUPT_InterruptManager 0070  
               ??_EUSART_SetRxInterruptHandler 0073                                         ??_main 0059  
                                       _ADACCH 0091                                         _ADACCL 0090  
    __end_of_EUSART_DefaultFramingErrorHandler 02FF     __size_of_EUSART_DefaultFramingErrorHandler 0001  
          ??_EUSART_DefaultFramingErrorHandler 0070             ?_EUSART_DefaultFramingErrorHandler 0070  
            _EUSART_DefaultFramingErrorHandler 02FE                                         _ADCON0 0093  
                                       _ADCON1 0094                                         _ADCON2 0095  
                                       _ADCON3 0096                     _EUSART_OverrunErrorHandler 005D  
                                       _ADERRH 0117                                         _ADERRL 0116  
                                       ?_fputc 0074                                         _ADLTHH 010F  
                                       _ADLTHL 010E                                         _ADRESH 008D  
                                       _ADRESL 008C                                         _ADSTAT 0097  
                                       _ADUTHH 0111                                         _ADUTHL 0110  
                                       _ANSELA 0F38                                         ?_putch 0070  
                                       _ANSELB 0F43                                         _ANSELC 0F4E  
                                       _RC1REG 0119                                         _RC0PPS 0F20  
                                       _RC1STA 011D                                         _ODCONA 0F3A  
                                       _ODCONB 0F45                                         _ODCONC 0F50  
                                       i1l1700 0188                                         i1l1710 01A2  
                                       i1l1702 018D                                         i1l1560 0265  
                                       i1l1632 02F6                                         i1l1712 01A8  
                                       i1l1704 0192                                         i1l1562 0269  
                                       i1l1634 02FA                                         i1l1714 01B1  
                                       i1l1706 0198                                         i1l1564 026F  
                                       i1l1716 01B8                                         i1l1708 019D  
                                       i1l1740 000F                                         i1l1566 0270  
                                       i1l1558 025C                                         i1l1742 0013  
                                       i1l1744 001E                                         i1l1736 0006  
                                       i1l1690 0248                                         i1l1746 0022  
                                       i1l1738 000A                                         i1l1692 024D  
                                       i1l1694 0253                                         i1l1686 023A  
                                       i1l1696 0254                                         i1l1688 0241  
                                       i1l1698 0183                                         _INLVLA 0F3C  
                                       _INLVLB 0F47                                         _INLVLC 0F52  
                                       _INLVLE 0F68                                         _OSCFRQ 0893  
                                       _TX1REG 011A                                         _TX1STA 011E  
                                 vfprintf@cfmt 0053                            _EUSART_Transmit_ISR 023A  
                                       _printf 028E                                _ADCC_Initialize 0276  
                                       fputc@c 0074                                 _PMD_Initialize 02C4  
                             __end_of_vfprintf 023A                           ?_EUSART_Transmit_ISR 0070  
                            _SYSTEM_Initialize 02A0                        __end_of__initialization 003E  
                           ?_SYSTEM_Initialize 0070           __end_of_EUSART_SetTxInterruptHandler 02DE  
        __size_of_EUSART_SetTxInterruptHandler 0006                   _EUSART_SetTxInterruptHandler 02D8  
                               __pcstackCOMMON 0070                            ??_SYSTEM_Initialize 0074  
                                __end_of_fputc 0183                                  __end_of_putch 02D8  
                       __end_of_PMD_Initialize 02CC                           _eusartRxStatusBuffer 0020  
              ??_EUSART_SetOverrunErrorHandler 0073                                        ??_fputc 0077  
                    __end_of_SYSTEM_Initialize 02B0                          ??_EUSART_Transmit_ISR 0070  
                                      ??_putch 0073                                     __pbssBANK0 0020  
                                   __pbssBANK1 00A0                           __end_of_EUSART_Write 0212  
                  __size_of_EUSART_Receive_ISR 0039                                     __pmaintext 00BE  
                ?_EUSART_SetTxInterruptHandler 0071               _EUSART_TxDefaultInterruptHandler 0063  
                      __end_of_ADCC_Initialize 028E                                     __pintentry 0004  
                                      _ADFLTRH 0115                                        _ADFLTRL 0114  
                                      _ADPREVH 008F                                        _ADPREVL 008E  
                                      _ADSTPTH 0113                                        _ADSTPTL 0112  
                 ??_EUSART_DefaultErrorHandler 0071                                        ?_printf 0055  
                              ?_PMD_Initialize 0070                                  _eusartRxCount 0041  
                                      _SP1BRGH 011C                                        _SP1BRGL 011B  
                                      _OSCCON1 088D                                        _OSCCON3 088F  
                           __size_of_vfpfcnvrt 007C                  __size_of_EUSART_RxDataHandler 001A  
                                      _OSCTUNE 0892                                        _SLRCONA 0F3B  
                                      _SLRCONB 0F46                                        _SLRCONC 0F51  
                     ??_EUSART_SetErrorHandler 0073            __size_of_EUSART_DefaultErrorHandler 0004  
                                    ?_vfprintf 004D                                        __ptext1 028E  
                                      __ptext2 0212                                        __ptext3 0042  
                                      __ptext4 0144                                        __ptext5 02D2  
                                      __ptext6 01E8                                        __ptext7 02A0  
                                      __ptext8 02C4                                        __ptext9 01BC  
                              __size_of_printf 0012                          _OSCILLATOR_Initialize 02BB  
                     ??_PIN_MANAGER_Initialize 0071                     __size_of_SYSTEM_Initialize 0010  
                                      clrloop0 02CD                           end_of_initialization 003E  
        __end_of_EUSART_SetOverrunErrorHandler 02EA         __size_of_EUSART_SetOverrunErrorHandler 0006  
                _EUSART_SetOverrunErrorHandler 02E4                                        fputc@fp 0076  
                            _EUSART_Initialize 0104                             ?_EUSART_Initialize 0070  
                            __end_of_vfpfcnvrt 00BE                               ?_ADCC_Initialize 0070  
                                   ??_vfprintf 0050                            ??_EUSART_Initialize 0073  
               ??_EUSART_SetTxInterruptHandler 0073                          __size_of_EUSART_Write 002A  
              __size_of_EUSART_SetErrorHandler 0006                      __end_of_EUSART_Initialize 0144  
           __end_of_EUSART_DefaultErrorHandler 02FE                     _EUSART_DefaultErrorHandler 02FA  
                                  vfpfcnvrt@ap 0046                                    vfpfcnvrt@fp 004C  
                                 _EUSART_Write 01E8                         ?_OSCILLATOR_Initialize 0070  
                               __end_of_printf 02A0                            start_initialization 002D  
              __size_of_PIN_MANAGER_Initialize 002C   EUSART_SetRxInterruptHandler@interruptHandler 0071  
 EUSART_SetTxInterruptHandler@interruptHandler 0071                                    putch@txData 0073  
               ?_EUSART_SetOverrunErrorHandler 0071                                    vfprintf@fmt 004D  
                   _EUSART_FramingErrorHandler 005F                               ??_PMD_Initialize 0071  
                       _EUSART_SetErrorHandler 02F0                                       ??_printf 0057  
                  __end_of_EUSART_Transmit_ISR 025C                                    __pbssCOMMON 007C  
                                    ___latbits 0002                                  __pcstackBANK0 0045  
                   __end_of_EUSART_Receive_ISR 01BC                     __size_of_EUSART_Initialize 0040  
             _EUSART_RxDefaultInterruptHandler 0061                                      __pnvBANK0 005B  
                 __end_of_EUSART_RxDataHandler 0276                         _PIN_MANAGER_Initialize 01BC  
                                 _eusartRxHead 007C                                   _eusartTxHead 0044  
                                 _eusartRxTail 0042                                   _eusartTxTail 0043  
                 ??_INTERRUPT_InterruptManager 0071                              __size_of_vfprintf 0028  
                      _eusartTxBufferRemaining 0065                                       _BAUD1CON 011F  
                               __size_of_fputc 003F                                 __size_of_putch 0006  
                               _eusartRxBuffer 0028                                 _eusartTxBuffer 0030  
                                     _LATAbits 0016         EUSART_SetErrorHandler@interruptHandler 0071  
                                    clear_ram0 02CC                                       _PIE3bits 0719  
                            _eusartRxLastError 0040            __size_of_INTERRUPT_InterruptManager 0027  
              ??_EUSART_SetFramingErrorHandler 0073                                       _PIR3bits 070F  
    __end_of_EUSART_DefaultOverrunErrorHandler 02FA     __size_of_EUSART_DefaultOverrunErrorHandler 0004  
          ??_EUSART_DefaultOverrunErrorHandler 0070             ?_EUSART_DefaultOverrunErrorHandler 0070  
            _EUSART_DefaultOverrunErrorHandler 02F6                                      _vfpfcnvrt 0042  
                                   _ADCON0bits 0093                                     _ADCON1bits 0094  
                                   _ADCON2bits 0095                                     _ADCON3bits 0096  
                                   _ADSTATbits 0097                                     vfprintf@ap 004F  
                                   vfprintf@fp 0052                        ??_OSCILLATOR_Initialize 0071  
                          _EUSART_ErrorHandler 005B                    ?_EUSART_DefaultErrorHandler 0070  
                                   ?_vfpfcnvrt 0045                       __size_of_ADCC_Initialize 0018  
                         _EUSART_RxDataHandler 025C                                       __ptext10 02BB  
                                     __ptext11 0104                                       __ptext20 0183  
                                     __ptext12 02D8                                       __ptext21 02F6  
                                     __ptext13 02DE                                       __ptext22 02FE  
                                     __ptext14 02E4                                       __ptext23 02FA  
                                     __ptext15 02EA                                       __ptext24 025C  
                                     __ptext16 02F0                                       __ptext17 0276  
                                     __ptext19 023A                                  __size_of_main 0046  
                      ?_EUSART_SetErrorHandler 0071                                     _RC1STAbits 011D  
EUSART_SetOverrunErrorHandler@interruptHandler 0071                                       int$flags 007E  
                                     _vfprintf 0212             __end_of_INTERRUPT_InterruptManager 002B  
                   _INTERRUPT_InterruptManager 0004                                      printf@fmt 0055  
        __end_of_EUSART_SetFramingErrorHandler 02F0         __size_of_EUSART_SetFramingErrorHandler 0006  
                _EUSART_SetFramingErrorHandler 02EA                                     _INTCONbits 000B  
                        ?_EUSART_RxDataHandler 0070                                       intlevel1 0000  
                      ?_PIN_MANAGER_Initialize 0070                 __end_of_EUSART_SetErrorHandler 02F6  
         __end_of_EUSART_SetRxInterruptHandler 02E4          __size_of_EUSART_SetRxInterruptHandler 0006  
                 _EUSART_SetRxInterruptHandler 02DE                                       printf@ap 0058  
                           _EUSART_Receive_ISR 0183  EUSART_SetFramingErrorHandler@interruptHandler 0071  
                                  ??_vfpfcnvrt 0047                                  __pstringtext1 02B0  
                                __pstringtext2 0000                            ?_EUSART_Receive_ISR 0070  
                                   _TX1STAbits 011E                             EUSART_Write@txData 0072  
                 __size_of_EUSART_Transmit_ISR 0022                 __end_of_PIN_MANAGER_Initialize 01E8  
                            ??_ADCC_Initialize 0071                           ??_EUSART_Receive_ISR 0071  
